

Microchip MPLAB XC8 Assembler V2.20 build 20200408173844 
                                                                                               Thu Sep 10 11:03:21 2020

Microchip MPLAB XC8 C Compiler v2.20 (Free license) build 20200408173844 Og1 
     1                           	processor	18F16Q40
     2                           	fnconf	rparam,??,?,0
     3                           	pagewidth 120
     4                           	opt	flic
     5                           	psect	text0,global,reloc=2,class=CODE,delta=1
     6                           	psect	nvBANK5,global,class=BANK5,space=1,delta=1,lowdata,noexec
     7                           	psect	smallconst,global,reloc=2,class=SMALLCONST,delta=1,noexec
     8                           	psect	cinit,global,reloc=2,class=CODE,delta=1
     9                           	psect	bssBANK5,global,class=BANK5,space=1,delta=1,lowdata,noexec
    10                           	psect	cstackBANK5,global,class=BANK5,space=1,delta=1,lowdata,noexec
    11                           	psect	cstackCOMRAM,global,class=COMRAM,space=1,delta=1,lowdata,noexec
    12                           	psect	text1,global,reloc=2,class=CODE,delta=1
    13                           	psect	text2,global,reloc=2,class=CODE,delta=1,group=2
    14                           	psect	text3,global,reloc=2,class=CODE,delta=1,group=2
    15                           	psect	text4,global,reloc=2,class=CODE,delta=1
    16                           	psect	text5,global,reloc=2,class=CODE,delta=1
    17                           	psect	text6,global,reloc=2,class=CODE,delta=1
    18                           	psect	text7,global,reloc=2,class=CODE,delta=1
    19                           	psect	text8,global,reloc=2,class=CODE,delta=1
    20                           	psect	text9,global,reloc=2,class=CODE,delta=1
    21                           	psect	text10,global,reloc=2,class=CODE,delta=1
    22                           	psect	text11,global,reloc=2,class=CODE,delta=1
    23                           	psect	text12,global,reloc=2,class=CODE,delta=1
    24                           	psect	text13,global,reloc=2,class=CODE,delta=1
    25                           	psect	text14,global,reloc=2,class=CODE,delta=1
    26                           	psect	text15,global,reloc=2,class=CODE,delta=1
    27                           	psect	text16,global,reloc=2,class=CODE,delta=1
    28                           	psect	text17,global,reloc=2,class=CODE,delta=1
    29                           	psect	text18,global,reloc=2,class=CODE,delta=1
    30                           	psect	text19,global,reloc=2,class=CODE,delta=1
    31                           	psect	text20,global,reloc=2,class=CODE,delta=1
    32                           	psect	text21,global,reloc=2,class=CODE,delta=1
    33                           	psect	text22,global,reloc=2,class=CODE,delta=1
    34                           	psect	text23,global,reloc=2,class=CODE,delta=1
    35                           	psect	text24,global,reloc=2,class=CODE,delta=1
    36                           	psect	text25,global,reloc=2,class=CODE,delta=1
    37                           	psect	text26,global,reloc=2,class=CODE,delta=1,group=3
    38                           	psect	text27,global,reloc=2,class=CODE,delta=1,group=1
    39                           	psect	text28,global,reloc=2,class=CODE,delta=1,group=1
    40                           	psect	text29,global,reloc=2,class=CODE,delta=1,group=1
    41                           	psect	text30,global,reloc=2,class=CODE,delta=1,group=1
    42                           	psect	text31,global,reloc=2,class=CODE,delta=1,group=3
    43                           	psect	text32,global,reloc=2,class=CODE,delta=1,group=3
    44                           	psect	text33,global,reloc=2,class=CODE,delta=1,group=3
    45                           	psect	text34,global,reloc=2,class=CODE,delta=1
    46                           	psect	text35,global,reloc=2,class=CODE,delta=1
    47                           	psect	text36,global,reloc=2,class=CODE,delta=1,group=3
    48                           	psect	text37,global,reloc=2,class=CODE,delta=1,group=2
    49                           	psect	text38,global,reloc=2,class=CODE,delta=1,group=2
    50                           	psect	text39,global,reloc=2,class=CODE,delta=1
    51                           	psect	text40,global,reloc=2,class=CODE,delta=1
    52                           	psect	text41,global,reloc=2,class=CODE,delta=1
    53                           	psect	text42,global,reloc=2,class=CODE,delta=1
    54                           	psect	ivt0x8,global,reloc=2,class=CODE,delta=1,noexec,keep,optim=
    55                           	psect	intsave_regs,global,class=BIGRAM,space=1,delta=1,noexec
    56                           	psect	text43,global,reloc=2,class=CODE,delta=1
    57                           	psect	rparam,global,class=COMRAM,space=1,delta=1,noexec
    58                           	psect	idloc,global,abs,ovrld,class=IDLOC,space=5,delta=1,noexec
    59                           	psect	config,global,abs,ovrld,class=CONFIG,space=4,delta=1,noexec
    60                           	dabs	1,0x1500,2,_bufferRAM
    61  0000                     
    62                           ; Version 2.30
    63                           ; Generated 20/08/2020 GMT
    64                           ; 
    65                           ; Copyright © 2020, Microchip Technology Inc. and its subsidiaries ("Microchip")
    66                           ; All rights reserved.
    67                           ; 
    68                           ; This software is developed by Microchip Technology Inc. and its subsidiaries ("Microch
      +                          ip").
    69                           ; 
    70                           ; Redistribution and use in source and binary forms, with or without modification, are
    71                           ; permitted provided that the following conditions are met:
    72                           ; 
    73                           ;     1. Redistributions of source code must retain the above copyright notice, this lis
      +                          t of
    74                           ;        conditions and the following disclaimer.
    75                           ; 
    76                           ;     2. Redistributions in binary form must reproduce the above copyright notice, this 
      +                          list
    77                           ;        of conditions and the following disclaimer in the documentation and/or other
    78                           ;        materials provided with the distribution. Publication is not required when
    79                           ;        this file is used in an embedded application.
    80                           ; 
    81                           ;     3. Microchip's name may not be used to endorse or promote products derived from th
      +                          is
    82                           ;        software without specific prior written permission.
    83                           ; 
    84                           ; THIS SOFTWARE IS PROVIDED BY MICROCHIP "AS IS" AND ANY EXPRESS OR IMPLIED WARRANTIES,
    85                           ; INCLUDING, BUT NOT LIMITED TO, THE IMPLIED WARRANTIES OF MERCHANTABILITY AND FITNESS F
      +                          OR
    86                           ; PURPOSE ARE DISCLAIMED.  IN NO EVENT SHALL MICROCHIP BE LIABLE FOR ANY DIRECT, INDIREC
      +                          T,
    87                           ; INCIDENTAL, SPECIAL, EXEMPLARY, OR CONSEQUENTIAL DAMAGES (INCLUDING BUT NOT LIMITED TO
    88                           ; PROCUREMENT OF SUBSTITUTE GOODS OR SERVICES; LOSS OF USE, DATA OR PROFITS; OR BUSINESS
    89                           ; INTERRUPTION) HOWSOEVER CAUSED AND ON ANY THEORY OF LIABILITY, WHETHER IN CONTRACT, ST
      +                          RICT
    90                           ; LIABILITY, OR TORT (INCLUDING NEGLIGENCE OR OTHERWISE) ARISING IN ANY WAY OUT OF THE U
      +                          SE OF
    91                           ; THIS SOFTWARE, EVEN IF ADVISED OF THE POSSIBILITY OF SUCH DAMAGE.
    92                           ; 
    93                           ; 
    94                           ; Code-generator required, PIC18F16Q40 Definitions
    95                           ; 
    96                           ; SFR Addresses
    97  0000                     
    98 ;; Function _UART1_DefaultFramingErrorHandler is unused but had its address taken
    99  0000                     
   100 ;; Function _UART1_DefaultOverrunErrorHandler is unused but had its address taken
   101  0000                     
   102 ;; Function _UART1_DefaultErrorHandler is unused but had its address taken
   103  0000                     
   104 ;; Function _PWM1_16BIT_Slice1Output1_DefaultInterruptHandler is unused but had its address taken
   105  0000                     
   106 ;; Function _PWM1_16BIT_Slice1Output2_DefaultInterruptHandler is unused but had its address taken
   107  0000                     
   108 ;; Function _PWM1_16BIT_Period_DefaultInterruptHandler is unused but had its address taken
   109  0000                     
   110 ;;
   111 ;;Main: autosize = 0, tempsize = 1, incstack = 0, save=0
   112 ;;
   113 ;; *************** function _main *****************
   114 ;; Defined at:
   115 ;;		line 50 in file "main.c"
   116 ;; Parameters:    Size  Location     Type
   117 ;;		None
   118 ;; Auto vars:     Size  Location     Type
   119 ;;		None
   120 ;; Return value:  Size  Location     Type
   121 ;;                  1    wreg      void 
   122 ;; Registers used:
   123 ;;		wreg, fsr1l, fsr1h, fsr2l, fsr2h, status,2, status,0, tblptrl, tblptrh, tblptru, cstack
   124 ;; Tracked objects:
   125 ;;		On entry : 0/0
   126 ;;		On exit  : 0/0
   127 ;;		Unchanged: 0/0
   128 ;; Data sizes:     COMRAM   BANK5   BANK6   BANK7   BANK8   BANK9  BANK10  BANK11  BANK12  BANK13  BANK14  BANK15  BANK1
      +6  BANK17  BANK18  BANK19  BANK20  BANK21
   129 ;;      Params:         0       0       0       0       0       0       0       0       0       0       0       0       
      +0       0       0       0       0       0
   130 ;;      Locals:         0       0       0       0       0       0       0       0       0       0       0       0       
      +0       0       0       0       0       0
   131 ;;      Temps:          1       0       0       0       0       0       0       0       0       0       0       0       
      +0       0       0       0       0       0
   132 ;;      Totals:         1       0       0       0       0       0       0       0       0       0       0       0       
      +0       0       0       0       0       0
   133 ;;Total ram usage:        1 bytes
   134 ;; Hardware stack levels required when called:   13
   135 ;; This function calls:
   136 ;;		_IntroSplashMessage
   137 ;;		_SYSTEM_Initialize
   138 ;;		_TempIndicator_Calc
   139 ;;		_printf
   140 ;; This function is called by:
   141 ;;		Startup code after reset
   142 ;; This function uses a non-reentrant model
   143 ;;
   144                           
   145                           	psect	text0
   146  0021C8                     __ptext0:
   147                           	callstack 0
   148  0021C8                     _main:
   149                           	callstack 115
   150  0021C8                     
   151                           ;main.c: 52:     SYSTEM_Initialize();
   152  0021C8  EC48  F013         	call	_SYSTEM_Initialize	;wreg free
   153  0021CC                     
   154                           ;main.c: 59:     (INTCON0bits.GIE = 1);
   155  0021CC  8ED6               	bsf	214,7,c	;volatile
   156  0021CE                     
   157                           ;main.c: 64:     ADPCH = channel_Temp;
   158  0021CE  0E3C               	movlw	60
   159  0021D0  0103               	movlb	3	; () banked
   160  0021D2  6FEC               	movwf	236,b	;volatile
   161  0021D4                     
   162                           ; BSR set to: 3
   163                           ;main.c: 65:     IntroSplashMessage();
   164  0021D4  EC73  F013         	call	_IntroSplashMessage	;wreg free
   165  0021D8                     l3045:
   166                           
   167                           ;main.c: 69:         if (SW0_flag == 1) {
   168  0021D8  0105               	movlb	5	; () banked
   169  0021DA  0571               	decf	_SW0_flag& (0+255),w,b
   170  0021DC  A4D8               	btfss	status,2,c
   171  0021DE  EFF3  F010         	goto	u1591
   172  0021E2  EFF5  F010         	goto	u1590
   173  0021E6                     u1591:
   174  0021E6  EF10  F011         	goto	l3053
   175  0021EA                     u1590:
   176  0021EA                     
   177                           ; BSR set to: 5
   178                           ;main.c: 70:             SW0_flag = 0;
   179  0021EA  0E00               	movlw	0
   180  0021EC  6F71               	movwf	_SW0_flag& (0+255),b
   181  0021EE                     
   182                           ; BSR set to: 5
   183  0021EE  B2C0               	btfsc	192,1,c	;volatile
   184  0021F0  EFFC  F010         	goto	u1601
   185  0021F4  EFFF  F010         	goto	u1600
   186  0021F8                     u1601:
   187  0021F8  0E01               	movlw	1
   188  0021FA  EF00  F011         	goto	u1606
   189  0021FE                     u1600:
   190  0021FE  0E00               	movlw	0
   191  002200                     u1606:
   192  002200  0AFF               	xorlw	255
   193  002202  6E5F               	movwf	??_main^(0+1280),c
   194  002204  465F               	rlncf	??_main^(0+1280),f,c
   195  002206  50C0               	movf	192,w,c	;volatile
   196  002208  185F               	xorwf	??_main^(0+1280),w,c
   197  00220A  0BFD               	andlw	-3
   198  00220C  185F               	xorwf	??_main^(0+1280),w,c
   199  00220E  6EC0               	movwf	192,c	;volatile
   200  002210                     
   201                           ; BSR set to: 5
   202                           ;main.c: 72:             printf("SW0 Pressed! \r\n");
   203  002210  0EB4               	movlw	low STR_1
   204  002212  6E5A               	movwf	printf@fmt^(0+1280),c
   205  002214  0E16               	movlw	high STR_1
   206  002216  6E5B               	movwf	(printf@fmt+1)^(0+1280),c
   207  002218  EC5F  F013         	call	_printf	;wreg free
   208                           
   209                           ;main.c: 73:         } else if (adcc_flag == 1) {
   210  00221C  EFEC  F010         	goto	l3045
   211  002220                     l3053:
   212                           
   213                           ; BSR set to: 5
   214  002220  0572               	decf	_adcc_flag& (0+255),w,b
   215  002222  A4D8               	btfss	status,2,c
   216  002224  EF16  F011         	goto	u1611
   217  002228  EF18  F011         	goto	u1610
   218  00222C                     u1611:
   219  00222C  EFEC  F010         	goto	l3045
   220  002230                     u1610:
   221  002230                     
   222                           ; BSR set to: 5
   223                           ;main.c: 74:             adcc_flag = 0;
   224  002230  0E00               	movlw	0
   225  002232  6F72               	movwf	_adcc_flag& (0+255),b
   226  002234                     
   227                           ; BSR set to: 5
   228                           ;main.c: 75:             TempIndicator_Calc();
   229  002234  EC46  F00F         	call	_TempIndicator_Calc	;wreg free
   230  002238  EFEC  F010         	goto	l3045
   231  00223C  EF0D  F000         	goto	start
   232  002240                     __end_of_main:
   233                           	callstack 0
   234                           
   235                           	psect	nvBANK5
   236  000594                     __pnvBANK5:
   237                           	callstack 0
   238  000594                     _timer1ReloadVal:
   239                           	callstack 0
   240  000594                     	ds	2
   241  000596                     _ADCC_ADI_InterruptHandler:
   242                           	callstack 0
   243  000596                     	ds	2
   244  000598                     _PWM1_16BIT_Period_InterruptHandler:
   245                           	callstack 0
   246  000598                     	ds	2
   247  00059A                     _PWM1_16BIT_Slice1Output2_InterruptHandler:
   248                           	callstack 0
   249  00059A                     	ds	2
   250  00059C                     _PWM1_16BIT_Slice1Output1_InterruptHandler:
   251                           	callstack 0
   252  00059C                     	ds	2
   253  00059E                     _UART1_ErrorHandler:
   254                           	callstack 0
   255  00059E                     	ds	2
   256  0005A0                     _UART1_OverrunErrorHandler:
   257                           	callstack 0
   258  0005A0                     	ds	2
   259  0005A2                     _UART1_FramingErrorHandler:
   260                           	callstack 0
   261  0005A2                     	ds	2
   262  0000                     _NVMDATL	set	70
   263  0000                     _NVMCON0bits	set	64
   264  0000                     _NVMLOCK	set	66
   265  0000                     _NVMCON1bits	set	65
   266  0000                     _NVMADRL	set	67
   267  0000                     _NVMADRH	set	68
   268  0000                     _NVMADRU	set	69
   269  0000                     _CLCDATAbits	set	212
   270  0000                     _CLCnCON	set	214
   271  0000                     _CLCDATA	set	212
   272  0000                     _CLCnGLS3	set	223
   273  0000                     _CLCnGLS2	set	222
   274  0000                     _CLCnGLS1	set	221
   275  0000                     _CLCnGLS0	set	220
   276  0000                     _CLCnSEL3	set	219
   277  0000                     _CLCnSEL2	set	218
   278  0000                     _CLCnSEL1	set	217
   279  0000                     _CLCnSEL0	set	216
   280  0000                     _CLCnPOL	set	215
   281  0000                     _CLCSELECT	set	213
   282  0000                     _PMD5	set	104
   283  0000                     _PMD4	set	103
   284  0000                     _PMD3	set	102
   285  0000                     _PMD2	set	101
   286  0000                     _PMD1	set	100
   287  0000                     _PMD0	set	99
   288  0000                     _ACTCON	set	172
   289  0000                     _OSCTUNE	set	176
   290  0000                     _OSCFRQ	set	177
   291  0000                     _OSCEN	set	179
   292  0000                     _OSCCON3	set	175
   293  0000                     _OSCCON1	set	173
   294  0000                     _U1TXB	set	675
   295  0000                     _U1RXB	set	673
   296  0000                     _U1ERRIRbits	set	690
   297  0000                     _U1CON0bits	set	683
   298  0000                     _U1ERRIE	set	691
   299  0000                     _U1ERRIR	set	690
   300  0000                     _U1UIR	set	689
   301  0000                     _U1FIFO	set	688
   302  0000                     _U1BRGH	set	687
   303  0000                     _U1BRGL	set	686
   304  0000                     _U1CON2	set	685
   305  0000                     _U1CON1	set	684
   306  0000                     _U1CON0	set	683
   307  0000                     _U1P3H	set	682
   308  0000                     _U1P3L	set	681
   309  0000                     _U1P2H	set	680
   310  0000                     _U1P2L	set	679
   311  0000                     _U1P1H	set	678
   312  0000                     _U1P1L	set	677
   313  0000                     _U1RXPPS	set	626
   314  0000                     _RA5PPS	set	518
   315  0000                     _T2INPPS	set	584
   316  0000                     _RB7PPS	set	528
   317  0000                     _CLCIN0PPS	set	609
   318  0000                     _RA4PPS	set	517
   319  0000                     _PWMIN0PPS	set	599
   320  0000                     _PWMIN1PPS	set	600
   321  0000                     _FVRCONbits	set	983
   322  0000                     _FVRCON	set	983
   323  0000                     _T1GCONbits	set	789
   324  0000                     _T1CONbits	set	788
   325  0000                     _T1CON	set	788
   326  0000                     _TMR1L	set	786
   327  0000                     _TMR1H	set	787
   328  0000                     _T1CLK	set	791
   329  0000                     _T1GATE	set	790
   330  0000                     _T1GCON	set	789
   331  0000                     _ADCON1bits	set	1012
   332  0000                     _ADERRL	set	989
   333  0000                     _ADERRH	set	990
   334  0000                     _ADPREVL	set	1000
   335  0000                     _ADPREVH	set	1001
   336  0000                     _ADFLTRL	set	993
   337  0000                     _ADFLTRH	set	994
   338  0000                     _ADSTATbits	set	1015
   339  0000                     _ADACCL	set	995
   340  0000                     _ADACCH	set	996
   341  0000                     _ADCON2bits	set	1013
   342  0000                     _ADCNT	set	998
   343  0000                     _ADCON3bits	set	1014
   344  0000                     _ADRESL	set	1002
   345  0000                     _ADRESH	set	1003
   346  0000                     _ADCON0bits	set	1011
   347  0000                     _ADCON0	set	1011
   348  0000                     _ADCLK	set	1018
   349  0000                     _ADACT	set	1017
   350  0000                     _ADREF	set	1016
   351  0000                     _ADSTAT	set	1015
   352  0000                     _ADCON3	set	1014
   353  0000                     _ADCON2	set	1013
   354  0000                     _ADCON1	set	1012
   355  0000                     _ADPREH	set	1010
   356  0000                     _ADPREL	set	1009
   357  0000                     _ADCAP	set	1008
   358  0000                     _ADACQH	set	1007
   359  0000                     _ADACQL	set	1006
   360  0000                     _ADRPT	set	999
   361  0000                     _ADACCU	set	997
   362  0000                     _ADSTPTH	set	992
   363  0000                     _ADSTPTL	set	991
   364  0000                     _ADUTHH	set	988
   365  0000                     _ADUTHL	set	987
   366  0000                     _ADLTHH	set	986
   367  0000                     _ADLTHL	set	985
   368  0000                     _PR2	set	797
   369  0000                     _TMR2	set	796
   370  0000                     _T2CONbits	set	798
   371  0000                     _T2RSTbits	set	801
   372  0000                     _T2HLTbits	set	799
   373  0000                     _T2CON	set	798
   374  0000                     _T2TMR	set	796
   375  0000                     _T2PR	set	797
   376  0000                     _T2RST	set	801
   377  0000                     _T2HLT	set	799
   378  0000                     _T2CLKCON	set	800
   379  0000                     _ADPCH	set	1004
   380  0000                     _INLVLC	set	1044
   381  0000                     _INLVLB	set	1036
   382  0000                     _INLVLA	set	1028
   383  0000                     _SLRCONC	set	1043
   384  0000                     _SLRCONB	set	1035
   385  0000                     _SLRCONA	set	1027
   386  0000                     _ODCONC	set	1042
   387  0000                     _ODCONB	set	1034
   388  0000                     _ODCONA	set	1026
   389  0000                     _WPUC	set	1041
   390  0000                     _WPUA	set	1025
   391  0000                     _WPUB	set	1033
   392  0000                     _ANSELA	set	1024
   393  0000                     _ANSELB	set	1032
   394  0000                     _ANSELC	set	1040
   395  0000                     _TABLAT	set	1269
   396  0000                     _TBLPTRL	set	1270
   397  0000                     _TBLPTRH	set	1271
   398  0000                     _TBLPTRU	set	1272
   399  0000                     _PIR1bits	set	1204
   400  0000                     _PIE1bits	set	1193
   401  0000                     _PIR3bits	set	1206
   402  0000                     _PIE0bits	set	1192
   403  0000                     _PIR0bits	set	1203
   404  0000                     _PWM1GIEbits	set	1128
   405  0000                     _PWM1CONbits	set	1129
   406  0000                     _PWM1CON	set	1129
   407  0000                     _PIE4bits	set	1196
   408  0000                     _PWM1GIRbits	set	1127
   409  0000                     _PWM1S1P2H	set	1134
   410  0000                     _PWM1S1P2L	set	1133
   411  0000                     _PWM1S1P1H	set	1132
   412  0000                     _PWM1S1P1L	set	1131
   413  0000                     _PWM1S1CFG	set	1130
   414  0000                     _PWM1GIE	set	1128
   415  0000                     _PWM1GIR	set	1127
   416  0000                     _PWM1PIPOS	set	1126
   417  0000                     _PWM1CPRE	set	1125
   418  0000                     _PWM1PRH	set	1124
   419  0000                     _PWM1PRL	set	1123
   420  0000                     _PWM1LDS	set	1122
   421  0000                     _PWM1CLK	set	1121
   422  0000                     _PWM1ERS	set	1120
   423  0000                     _LATCbits	set	1216
   424  0000                     _INTCON0bits	set	1238
   425  0000                     _PIR4bits	set	1207
   426  0000                     _TRISC	set	1224
   427  0000                     _TRISB	set	1223
   428  0000                     _TRISA	set	1222
   429  0000                     _LATC	set	1216
   430  0000                     _LATB	set	1215
   431  0000                     _LATA	set	1214
   432                           
   433                           	psect	smallconst
   434  001600                     __psmallconst:
   435                           	callstack 0
   436  001600  00                 	db	0
   437  001601                     STR_4:
   438                           
   439                           ; BSR set to: 5
   440  001601  2D                 	db	45
   441  001602  2D                 	db	45
   442  001603  2D                 	db	45
   443  001604  2D                 	db	45
   444  001605  2D                 	db	45
   445  001606  2D                 	db	45
   446  001607  2D                 	db	45
   447  001608  2D                 	db	45
   448  001609  2D                 	db	45
   449  00160A  2D                 	db	45
   450  00160B  2D                 	db	45
   451  00160C  2D                 	db	45
   452  00160D  2D                 	db	45
   453  00160E  2D                 	db	45
   454  00160F  2D                 	db	45
   455  001610  2D                 	db	45
   456  001611  2D                 	db	45
   457  001612  2D                 	db	45
   458  001613  2D                 	db	45
   459  001614  2D                 	db	45
   460  001615  2D                 	db	45
   461  001616  2D                 	db	45
   462  001617  2D                 	db	45
   463  001618  2D                 	db	45
   464  001619  2D                 	db	45
   465  00161A  2D                 	db	45
   466  00161B  2D                 	db	45
   467  00161C  2D                 	db	45
   468  00161D  2D                 	db	45
   469  00161E  2D                 	db	45
   470  00161F  2D                 	db	45
   471  001620  2D                 	db	45
   472  001621  2D                 	db	45
   473  001622  2D                 	db	45
   474  001623  2D                 	db	45
   475  001624  2D                 	db	45
   476  001625  2D                 	db	45
   477  001626  2D                 	db	45
   478  001627  2D                 	db	45
   479  001628  2D                 	db	45
   480  001629  2D                 	db	45
   481  00162A  2D                 	db	45
   482  00162B  2D                 	db	45
   483  00162C  2D                 	db	45
   484  00162D  2D                 	db	45
   485  00162E  2D                 	db	45
   486  00162F  2D                 	db	45
   487  001630  2D                 	db	45
   488  001631  2D                 	db	45
   489  001632  2D                 	db	45
   490  001633  2D                 	db	45
   491  001634  2D                 	db	45
   492  001635  2D                 	db	45
   493  001636  2D                 	db	45
   494  001637  2D                 	db	45
   495  001638  2D                 	db	45
   496  001639  20                 	db	32
   497  00163A  0D                 	db	13
   498  00163B  0A                 	db	10
   499  00163C  00                 	db	0
   500  00163D                     STR_3:
   501                           
   502                           ; BSR set to: 5
   503  00163D  50                 	db	80	;'P'
   504  00163E  6C                 	db	108	;'l'
   505  00163F  65                 	db	101	;'e'
   506  001640  61                 	db	97	;'a'
   507  001641  73                 	db	115	;'s'
   508  001642  65                 	db	101	;'e'
   509  001643  20                 	db	32
   510  001644  72                 	db	114	;'r'
   511  001645  65                 	db	101	;'e'
   512  001646  66                 	db	102	;'f'
   513  001647  65                 	db	101	;'e'
   514  001648  72                 	db	114	;'r'
   515  001649  20                 	db	32
   516  00164A  74                 	db	116	;'t'
   517  00164B  6F                 	db	111	;'o'
   518  00164C  20                 	db	32
   519  00164D  69                 	db	105	;'i'
   520  00164E  6E                 	db	110	;'n'
   521  00164F  63                 	db	99	;'c'
   522  001650  6C                 	db	108	;'l'
   523  001651  75                 	db	117	;'u'
   524  001652  64                 	db	100	;'d'
   525  001653  65                 	db	101	;'e'
   526  001654  64                 	db	100	;'d'
   527  001655  20                 	db	32
   528  001656  72                 	db	114	;'r'
   529  001657  65                 	db	101	;'e'
   530  001658  61                 	db	97	;'a'
   531  001659  64                 	db	100	;'d'
   532  00165A  6D                 	db	109	;'m'
   533  00165B  65                 	db	101	;'e'
   534  00165C  2E                 	db	46
   535  00165D  6D                 	db	109	;'m'
   536  00165E  64                 	db	100	;'d'
   537  00165F  20                 	db	32
   538  001660  66                 	db	102	;'f'
   539  001661  6F                 	db	111	;'o'
   540  001662  72                 	db	114	;'r'
   541  001663  20                 	db	32
   542  001664  6D                 	db	109	;'m'
   543  001665  6F                 	db	111	;'o'
   544  001666  72                 	db	114	;'r'
   545  001667  65                 	db	101	;'e'
   546  001668  20                 	db	32
   547  001669  69                 	db	105	;'i'
   548  00166A  6E                 	db	110	;'n'
   549  00166B  66                 	db	102	;'f'
   550  00166C  6F                 	db	111	;'o'
   551  00166D  72                 	db	114	;'r'
   552  00166E  6D                 	db	109	;'m'
   553  00166F  61                 	db	97	;'a'
   554  001670  74                 	db	116	;'t'
   555  001671  69                 	db	105	;'i'
   556  001672  6F                 	db	111	;'o'
   557  001673  6E                 	db	110	;'n'
   558  001674  20                 	db	32
   559  001675  0D                 	db	13
   560  001676  0A                 	db	10
   561  001677  00                 	db	0
   562  001678                     STR_2:
   563                           
   564                           ; BSR set to: 5
   565  001678  50                 	db	80	;'P'
   566  001679  49                 	db	73	;'I'
   567  00167A  43                 	db	67	;'C'
   568  00167B  31                 	db	49	;'1'
   569  00167C  38                 	db	56	;'8'
   570  00167D  46                 	db	70	;'F'
   571  00167E  31                 	db	49	;'1'
   572  00167F  36                 	db	54	;'6'
   573  001680  51                 	db	81	;'Q'
   574  001681  34                 	db	52	;'4'
   575  001682  30                 	db	48	;'0'
   576  001683  20                 	db	32
   577  001684  43                 	db	67	;'C'
   578  001685  75                 	db	117	;'u'
   579  001686  72                 	db	114	;'r'
   580  001687  69                 	db	105	;'i'
   581  001688  6F                 	db	111	;'o'
   582  001689  73                 	db	115	;'s'
   583  00168A  69                 	db	105	;'i'
   584  00168B  74                 	db	116	;'t'
   585  00168C  79                 	db	121	;'y'
   586  00168D  20                 	db	32
   587  00168E  4E                 	db	78	;'N'
   588  00168F  61                 	db	97	;'a'
   589  001690  6E                 	db	110	;'n'
   590  001691  6F                 	db	111	;'o'
   591  001692  20                 	db	32
   592  001693  44                 	db	68	;'D'
   593  001694  65                 	db	101	;'e'
   594  001695  6D                 	db	109	;'m'
   595  001696  6F                 	db	111	;'o'
   596  001697  20                 	db	32
   597  001698  0D                 	db	13
   598  001699  0A                 	db	10
   599  00169A  00                 	db	0
   600  00169B                     STR_5:
   601                           
   602                           ; BSR set to: 5
   603  00169B  54                 	db	84	;'T'
   604  00169C  65                 	db	101	;'e'
   605  00169D  6D                 	db	109	;'m'
   606  00169E  70                 	db	112	;'p'
   607  00169F  20                 	db	32
   608  0016A0  53                 	db	83	;'S'
   609  0016A1  65                 	db	101	;'e'
   610  0016A2  6E                 	db	110	;'n'
   611  0016A3  73                 	db	115	;'s'
   612  0016A4  6F                 	db	111	;'o'
   613  0016A5  72                 	db	114	;'r'
   614  0016A6  20                 	db	32
   615  0016A7  52                 	db	82	;'R'
   616  0016A8  65                 	db	101	;'e'
   617  0016A9  73                 	db	115	;'s'
   618  0016AA  75                 	db	117	;'u'
   619  0016AB  6C                 	db	108	;'l'
   620  0016AC  74                 	db	116	;'t'
   621  0016AD  20                 	db	32
   622  0016AE  25                 	db	37
   623  0016AF  64                 	db	100	;'d'
   624  0016B0  20                 	db	32
   625  0016B1  0D                 	db	13
   626  0016B2  0A                 	db	10
   627  0016B3  00                 	db	0
   628  0016B4                     STR_1:
   629                           
   630                           ; BSR set to: 5
   631  0016B4  53                 	db	83	;'S'
   632  0016B5  57                 	db	87	;'W'
   633  0016B6  30                 	db	48	;'0'
   634  0016B7  20                 	db	32
   635  0016B8  50                 	db	80	;'P'
   636  0016B9  72                 	db	114	;'r'
   637  0016BA  65                 	db	101	;'e'
   638  0016BB  73                 	db	115	;'s'
   639  0016BC  73                 	db	115	;'s'
   640  0016BD  65                 	db	101	;'e'
   641  0016BE  64                 	db	100	;'d'
   642  0016BF  21                 	db	33
   643  0016C0  20                 	db	32
   644  0016C1  0D                 	db	13
   645  0016C2  0A                 	db	10
   646  0016C3  00                 	db	0
   647  0016C4  00                 	db	0	; dummy byte at the end
   648  0000                     
   649                           ; #config settings
   650                           
   651                           	psect	cinit
   652  00270C                     __pcinit:
   653                           	callstack 0
   654  00270C                     start_initialization:
   655                           	callstack 0
   656  00270C                     __initialization:
   657                           	callstack 0
   658                           
   659                           ; Clear objects allocated to BANK5 (52 bytes)
   660  00270C  EE01  F160         	lfsr	0,__pbssBANK5
   661  002710  0E34               	movlw	52
   662  002712                     clear_0:
   663  002712  6AEE               	clrf	postinc0,c
   664  002714  06E8               	decf	wreg,f,c
   665  002716  E1FD               	bnz	clear_0
   666                           
   667                           ;
   668                           ; Setup IVTBASE
   669                           ;
   670  002718  0104               	movlb	4
   671  00271A  0E08               	movlw	(ivt0x8_base shr 0)& (0+255)
   672  00271C  6F5D               	movwf	93,b
   673  00271E  0E00               	movlw	(ivt0x8_base shr (0+8))& (0+255)
   674  002720  6F5E               	movwf	94,b
   675  002722  0E00               	movlw	(ivt0x8_base shr (0+16))& (0+255)
   676  002724  6F5F               	movwf	95,b
   677  002726                     end_of_initialization:
   678                           	callstack 0
   679  002726                     __end_of__initialization:
   680                           	callstack 0
   681  002726  0100               	movlb	0
   682  002728  EFE4  F010         	goto	_main	;jump to C main() function
   683                           
   684                           	psect	bssBANK5
   685  000560                     __pbssBANK5:
   686                           	callstack 0
   687  000560                     _tempC:
   688                           	callstack 0
   689  000560                     	ds	3
   690  000563                     _nout:
   691                           	callstack 0
   692  000563                     	ds	2
   693  000565                     _width:
   694                           	callstack 0
   695  000565                     	ds	2
   696  000567                     _prec:
   697                           	callstack 0
   698  000567                     	ds	2
   699  000569                     _flags:
   700                           	callstack 0
   701  000569                     	ds	2
   702  00056B                     _adcc_meas:
   703                           	callstack 0
   704  00056B                     	ds	2
   705  00056D                     _offset:
   706                           	callstack 0
   707  00056D                     	ds	2
   708  00056F                     _gain:
   709                           	callstack 0
   710  00056F                     	ds	2
   711  000571                     _SW0_flag:
   712                           	callstack 0
   713  000571                     	ds	1
   714  000572                     _adcc_flag:
   715                           	callstack 0
   716  000572                     	ds	1
   717  000573                     _uart1RxLastError:
   718                           	callstack 0
   719  000573                     	ds	1
   720  000574                     _dbuf:
   721                           	callstack 0
   722  000574                     	ds	32
   723                           
   724                           	psect	cstackBANK5
   725  0005A4                     __pcstackBANK5:
   726                           	callstack 0
   727  0005A4                     	ds	2
   728  0005A6                     printf@ap:
   729                           	callstack 0
   730                           
   731                           ; 2 bytes @ 0x2
   732  0005A6                     	ds	2
   733  0005A8                     ??_TempIndicator_Calc:
   734                           
   735                           ; 1 bytes @ 0x4
   736  0005A8                     	ds	3
   737                           
   738                           	psect	cstackCOMRAM
   739  000501                     __pcstackCOMRAM:
   740                           	callstack 0
   741  000501                     ??_TMR1_Initialize:
   742  000501                     ?_FLASH_ReadWord:
   743                           	callstack 0
   744  000501                     ?_strlen:
   745                           	callstack 0
   746  000501                     ?_ADCC_GetConversionResult:
   747                           	callstack 0
   748  000501                     ?___tmul:
   749                           	callstack 0
   750  000501                     ?___atdiv:
   751                           	callstack 0
   752  000501                     ?___aodiv:
   753                           	callstack 0
   754  000501                     ?___aomod:
   755                           	callstack 0
   756  000501                     UART1_Write@txData:
   757                           	callstack 0
   758  000501                     UART1_SetFramingErrorHandler@interruptHandler:
   759                           	callstack 0
   760  000501                     UART1_SetOverrunErrorHandler@interruptHandler:
   761                           	callstack 0
   762  000501                     UART1_SetErrorHandler@interruptHandler:
   763                           	callstack 0
   764  000501                     PWM1_16BIT_Slice1Output1_SetInterruptHandler@InterruptHandler:
   765                           	callstack 0
   766  000501                     PWM1_16BIT_Slice1Output2_SetInterruptHandler@InterruptHandler:
   767                           	callstack 0
   768  000501                     PWM1_16BIT_Period_SetInterruptHandler@InterruptHandler:
   769                           	callstack 0
   770  000501                     ADCC_SetADIInterruptHandler@InterruptHandler:
   771                           	callstack 0
   772  000501                     strlen@s:
   773                           	callstack 0
   774  000501                     ___tmul@multiplier:
   775                           	callstack 0
   776  000501                     ___atdiv@dividend:
   777                           	callstack 0
   778  000501                     FLASH_ReadWord@flashAddr:
   779                           	callstack 0
   780  000501                     ___aodiv@dividend:
   781                           	callstack 0
   782  000501                     ___aomod@dividend:
   783                           	callstack 0
   784                           
   785                           ; 8 bytes @ 0x0
   786  000501                     	ds	1
   787  000502                     putch@txData:
   788                           	callstack 0
   789                           
   790                           ; 1 bytes @ 0x1
   791  000502                     	ds	1
   792  000503                     ??_ADCC_GetConversionResult:
   793  000503                     fputc@c:
   794                           	callstack 0
   795  000503                     strlen@a:
   796                           	callstack 0
   797                           
   798                           ; 2 bytes @ 0x2
   799  000503                     	ds	1
   800  000504                     ___tmul@multiplicand:
   801                           	callstack 0
   802  000504                     ___atdiv@divisor:
   803                           	callstack 0
   804                           
   805                           ; 3 bytes @ 0x3
   806  000504                     	ds	1
   807  000505                     ??_FLASH_ReadWord:
   808  000505                     fputc@fp:
   809                           	callstack 0
   810                           
   811                           ; 2 bytes @ 0x4
   812  000505                     	ds	2
   813  000507                     ??_fputc:
   814  000507                     FLASH_ReadWord@readWordL:
   815                           	callstack 0
   816  000507                     ___atdiv@counter:
   817                           	callstack 0
   818  000507                     ___tmul@product:
   819                           	callstack 0
   820                           
   821                           ; 3 bytes @ 0x6
   822  000507                     	ds	1
   823  000508                     FLASH_ReadWord@readWordH:
   824                           	callstack 0
   825  000508                     ___atdiv@sign:
   826                           	callstack 0
   827                           
   828                           ; 1 bytes @ 0x7
   829  000508                     	ds	1
   830  000509                     ___atdiv@quotient:
   831                           	callstack 0
   832  000509                     ___aodiv@divisor:
   833                           	callstack 0
   834  000509                     ___aomod@divisor:
   835                           	callstack 0
   836                           
   837                           ; 8 bytes @ 0x8
   838  000509                     	ds	3
   839  00050C                     fputs@s:
   840                           	callstack 0
   841                           
   842                           ; 2 bytes @ 0xB
   843  00050C                     	ds	2
   844  00050E                     fputs@fp:
   845                           	callstack 0
   846                           
   847                           ; 2 bytes @ 0xD
   848  00050E                     	ds	2
   849  000510                     fputs@c:
   850                           	callstack 0
   851                           
   852                           ; 1 bytes @ 0xF
   853  000510                     	ds	1
   854  000511                     ___aodiv@counter:
   855                           	callstack 0
   856  000511                     ___aomod@counter:
   857                           	callstack 0
   858  000511                     fputs@i:
   859                           	callstack 0
   860                           
   861                           ; 2 bytes @ 0x10
   862  000511                     	ds	1
   863  000512                     ___aodiv@sign:
   864                           	callstack 0
   865  000512                     ___aomod@sign:
   866                           	callstack 0
   867                           
   868                           ; 1 bytes @ 0x11
   869  000512                     	ds	1
   870  000513                     ?_abs:
   871                           	callstack 0
   872  000513                     ?_pad:
   873                           	callstack 0
   874  000513                     pad@fp:
   875                           	callstack 0
   876  000513                     abs@a:
   877                           	callstack 0
   878  000513                     ___aodiv@quotient:
   879                           	callstack 0
   880                           
   881                           ; 8 bytes @ 0x12
   882  000513                     	ds	2
   883  000515                     ??_abs:
   884  000515                     pad@buf:
   885                           	callstack 0
   886                           
   887                           ; 2 bytes @ 0x14
   888  000515                     	ds	2
   889  000517                     pad@p:
   890                           	callstack 0
   891                           
   892                           ; 2 bytes @ 0x16
   893  000517                     	ds	2
   894  000519                     ??_pad:
   895                           
   896                           ; 1 bytes @ 0x18
   897  000519                     	ds	1
   898  00051A                     pad@i:
   899                           	callstack 0
   900                           
   901                           ; 2 bytes @ 0x19
   902  00051A                     	ds	2
   903  00051C                     pad@w:
   904                           	callstack 0
   905                           
   906                           ; 2 bytes @ 0x1B
   907  00051C                     	ds	2
   908  00051E                     ?_dtoa:
   909                           	callstack 0
   910  00051E                     dtoa@fp:
   911                           	callstack 0
   912                           
   913                           ; 2 bytes @ 0x1D
   914  00051E                     	ds	2
   915  000520                     dtoa@d:
   916                           	callstack 0
   917                           
   918                           ; 8 bytes @ 0x1F
   919  000520                     	ds	8
   920  000528                     ??_dtoa:
   921                           
   922                           ; 1 bytes @ 0x27
   923  000528                     	ds	8
   924  000530                     _dtoa$2363:
   925                           	callstack 0
   926                           
   927                           ; 2 bytes @ 0x2F
   928  000530                     	ds	2
   929  000532                     dtoa@p:
   930                           	callstack 0
   931                           
   932                           ; 2 bytes @ 0x31
   933  000532                     	ds	2
   934  000534                     dtoa@w:
   935                           	callstack 0
   936                           
   937                           ; 2 bytes @ 0x33
   938  000534                     	ds	2
   939  000536                     dtoa@s:
   940                           	callstack 0
   941                           
   942                           ; 2 bytes @ 0x35
   943  000536                     	ds	2
   944  000538                     dtoa@n:
   945                           	callstack 0
   946                           
   947                           ; 8 bytes @ 0x37
   948  000538                     	ds	8
   949  000540                     dtoa@i:
   950                           	callstack 0
   951                           
   952                           ; 2 bytes @ 0x3F
   953  000540                     	ds	2
   954  000542                     ?_vfpfcnvrt:
   955                           	callstack 0
   956  000542                     vfpfcnvrt@fp:
   957                           	callstack 0
   958                           
   959                           ; 2 bytes @ 0x41
   960  000542                     	ds	2
   961  000544                     vfpfcnvrt@fmt:
   962                           	callstack 0
   963                           
   964                           ; 2 bytes @ 0x43
   965  000544                     	ds	2
   966  000546                     vfpfcnvrt@ap:
   967                           	callstack 0
   968                           
   969                           ; 2 bytes @ 0x45
   970  000546                     	ds	2
   971  000548                     ??_vfpfcnvrt:
   972                           
   973                           ; 1 bytes @ 0x47
   974  000548                     	ds	2
   975  00054A                     vfpfcnvrt@ll:
   976                           	callstack 0
   977                           
   978                           ; 8 bytes @ 0x49
   979  00054A                     	ds	8
   980  000552                     ?_vfprintf:
   981                           	callstack 0
   982  000552                     vfprintf@fp:
   983                           	callstack 0
   984                           
   985                           ; 2 bytes @ 0x51
   986  000552                     	ds	2
   987  000554                     vfprintf@fmt:
   988                           	callstack 0
   989                           
   990                           ; 2 bytes @ 0x53
   991  000554                     	ds	2
   992  000556                     vfprintf@ap:
   993                           	callstack 0
   994                           
   995                           ; 2 bytes @ 0x55
   996  000556                     	ds	2
   997  000558                     vfprintf@cfmt:
   998                           	callstack 0
   999                           
  1000                           ; 2 bytes @ 0x57
  1001  000558                     	ds	2
  1002  00055A                     ?_printf:
  1003                           	callstack 0
  1004  00055A                     printf@fmt:
  1005                           	callstack 0
  1006                           
  1007                           ; 2 bytes @ 0x59
  1008  00055A                     	ds	5
  1009  00055F                     ??_main:
  1010                           
  1011                           ; 1 bytes @ 0x5E
  1012  00055F                     	ds	1
  1013                           
  1014 ;; *************** function _TempIndicator_Calc *****************
  1015 ;; Defined at:
  1016 ;;		line 18 in file "application.c"
  1017 ;; Parameters:    Size  Location     Type
  1018 ;;		None
  1019 ;; Auto vars:     Size  Location     Type
  1020 ;;		None
  1021 ;; Return value:  Size  Location     Type
  1022 ;;                  1    wreg      void 
  1023 ;; Registers used:
  1024 ;;		wreg, fsr1l, fsr1h, fsr2l, fsr2h, status,2, status,0, tblptrl, tblptrh, tblptru, cstack
  1025 ;; Tracked objects:
  1026 ;;		On entry : 0/0
  1027 ;;		On exit  : 0/0
  1028 ;;		Unchanged: 0/0
  1029 ;; Data sizes:     COMRAM   BANK5   BANK6   BANK7   BANK8   BANK9  BANK10  BANK11  BANK12  BANK13  BANK14  BANK15  BANK1
      +6  BANK17  BANK18  BANK19  BANK20  BANK21
  1030 ;;      Params:         0       0       0       0       0       0       0       0       0       0       0       0       
      +0       0       0       0       0       0
  1031 ;;      Locals:         0       0       0       0       0       0       0       0       0       0       0       0       
      +0       0       0       0       0       0
  1032 ;;      Temps:          0       3       0       0       0       0       0       0       0       0       0       0       
      +0       0       0       0       0       0
  1033 ;;      Totals:         0       3       0       0       0       0       0       0       0       0       0       0       
      +0       0       0       0       0       0
  1034 ;;Total ram usage:        3 bytes
  1035 ;; Hardware stack levels used:    1
  1036 ;; Hardware stack levels required when called:   12
  1037 ;; This function calls:
  1038 ;;		_ADCC_GetConversionResult
  1039 ;;		_FLASH_ReadWord
  1040 ;;		___atdiv
  1041 ;;		___tmul
  1042 ;;		_printf
  1043 ;; This function is called by:
  1044 ;;		_main
  1045 ;; This function uses a non-reentrant model
  1046 ;;
  1047                           
  1048                           	psect	text1
  1049  001E8C                     __ptext1:
  1050                           	callstack 0
  1051  001E8C                     _TempIndicator_Calc:
  1052                           	callstack 115
  1053  001E8C                     
  1054                           ;application.c: 19:     gain = FLASH_ReadWord(0x2C002A);
  1055  001E8C  0E2A               	movlw	42
  1056  001E8E  6E01               	movwf	FLASH_ReadWord@flashAddr^(0+1280),c
  1057  001E90  0E00               	movlw	0
  1058  001E92  6E02               	movwf	(FLASH_ReadWord@flashAddr+1)^(0+1280),c
  1059  001E94  0E2C               	movlw	44
  1060  001E96  6E03               	movwf	(FLASH_ReadWord@flashAddr+2)^(0+1280),c
  1061  001E98  0E00               	movlw	0
  1062  001E9A  6E04               	movwf	(FLASH_ReadWord@flashAddr+3)^(0+1280),c
  1063  001E9C  EC18  F013         	call	_FLASH_ReadWord	;wreg free
  1064  001EA0  C501  F56F         	movff	?_FLASH_ReadWord,_gain
  1065  001EA4  C502  F570         	movff	?_FLASH_ReadWord+1,_gain+1
  1066                           
  1067                           ;application.c: 20:     offset = FLASH_ReadWord(0x2C002E);
  1068  001EA8  0E2E               	movlw	46
  1069  001EAA  6E01               	movwf	FLASH_ReadWord@flashAddr^(0+1280),c
  1070  001EAC  0E00               	movlw	0
  1071  001EAE  6E02               	movwf	(FLASH_ReadWord@flashAddr+1)^(0+1280),c
  1072  001EB0  0E2C               	movlw	44
  1073  001EB2  6E03               	movwf	(FLASH_ReadWord@flashAddr+2)^(0+1280),c
  1074  001EB4  0E00               	movlw	0
  1075  001EB6  6E04               	movwf	(FLASH_ReadWord@flashAddr+3)^(0+1280),c
  1076  001EB8  EC18  F013         	call	_FLASH_ReadWord	;wreg free
  1077  001EBC  C501  F56D         	movff	?_FLASH_ReadWord,_offset
  1078  001EC0  C502  F56E         	movff	?_FLASH_ReadWord+1,_offset+1
  1079  001EC4                     
  1080                           ;application.c: 21:     adcc_meas = ADCC_GetConversionResult();
  1081  001EC4  ECCD  F013         	call	_ADCC_GetConversionResult	;wreg free
  1082  001EC8  C501  F56B         	movff	?_ADCC_GetConversionResult,_adcc_meas
  1083  001ECC  C502  F56C         	movff	?_ADCC_GetConversionResult+1,_adcc_meas+1
  1084  001ED0                     
  1085                           ;application.c: 22:     tempC = (int24_t) adcc_meas * gain;
  1086  001ED0  C56B  F501         	movff	_adcc_meas,___tmul@multiplier
  1087  001ED4  C56C  F502         	movff	_adcc_meas+1,___tmul@multiplier+1
  1088  001ED8  6A03               	clrf	(___tmul@multiplier+2)^(0+1280),c
  1089  001EDA  C56F  F504         	movff	_gain,___tmul@multiplicand
  1090  001EDE  C570  F505         	movff	_gain+1,___tmul@multiplicand+1
  1091  001EE2  6A06               	clrf	(___tmul@multiplicand+2)^(0+1280),c
  1092  001EE4  BE05               	btfsc	(___tmul@multiplicand+1)^(0+1280),7,c
  1093  001EE6  0606               	decf	(___tmul@multiplicand+2)^(0+1280),f,c
  1094  001EE8  EC31  F012         	call	___tmul	;wreg free
  1095  001EEC  C501  F560         	movff	?___tmul,_tempC
  1096  001EF0  C502  F561         	movff	?___tmul+1,_tempC+1
  1097  001EF4  C503  F562         	movff	?___tmul+2,_tempC+2
  1098  001EF8                     
  1099                           ;application.c: 23:     tempC = tempC / 256;
  1100  001EF8  C560  F501         	movff	_tempC,___atdiv@dividend
  1101  001EFC  C561  F502         	movff	_tempC+1,___atdiv@dividend+1
  1102  001F00  C562  F503         	movff	_tempC+2,___atdiv@dividend+2
  1103  001F04  0E00               	movlw	0
  1104  001F06  6E04               	movwf	___atdiv@divisor^(0+1280),c
  1105  001F08  0E01               	movlw	1
  1106  001F0A  6E05               	movwf	(___atdiv@divisor+1)^(0+1280),c
  1107  001F0C  0E00               	movlw	0
  1108  001F0E  6E06               	movwf	(___atdiv@divisor+2)^(0+1280),c
  1109  001F10  ECC2  F00F         	call	___atdiv	;wreg free
  1110  001F14  C501  F560         	movff	?___atdiv,_tempC
  1111  001F18  C502  F561         	movff	?___atdiv+1,_tempC+1
  1112  001F1C  C503  F562         	movff	?___atdiv+2,_tempC+2
  1113  001F20                     
  1114                           ;application.c: 24:     tempC = tempC + offset;
  1115  001F20  C56D  F5A8         	movff	_offset,??_TempIndicator_Calc
  1116  001F24  C56E  F5A9         	movff	_offset+1,??_TempIndicator_Calc+1
  1117  001F28  0105               	movlb	5	; () banked
  1118  001F2A  6BAA               	clrf	(??_TempIndicator_Calc+2)& (0+255),b
  1119  001F2C  BFA9               	btfsc	(??_TempIndicator_Calc+1)& (0+255),7,b
  1120  001F2E  69AA               	setf	(??_TempIndicator_Calc+2)& (0+255),b
  1121  001F30  5160               	movf	_tempC& (0+255),w,b
  1122  001F32  25A8               	addwf	??_TempIndicator_Calc& (0+255),w,b
  1123  001F34  6F60               	movwf	_tempC& (0+255),b
  1124  001F36  5161               	movf	(_tempC+1)& (0+255),w,b
  1125  001F38  21A9               	addwfc	(??_TempIndicator_Calc+1)& (0+255),w,b
  1126  001F3A  6F61               	movwf	(_tempC+1)& (0+255),b
  1127  001F3C  5162               	movf	(_tempC+2)& (0+255),w,b
  1128  001F3E  21AA               	addwfc	(??_TempIndicator_Calc+2)& (0+255),w,b
  1129  001F40  6F62               	movwf	(_tempC+2)& (0+255),b
  1130  001F42                     
  1131                           ; BSR set to: 5
  1132                           ;application.c: 25:     tempC = tempC / 10;
  1133  001F42  C560  F501         	movff	_tempC,___atdiv@dividend
  1134  001F46  C561  F502         	movff	_tempC+1,___atdiv@dividend+1
  1135  001F4A  C562  F503         	movff	_tempC+2,___atdiv@dividend+2
  1136  001F4E  0E0A               	movlw	10
  1137  001F50  6E04               	movwf	___atdiv@divisor^(0+1280),c
  1138  001F52  0E00               	movlw	0
  1139  001F54  6E05               	movwf	(___atdiv@divisor+1)^(0+1280),c
  1140  001F56  0E00               	movlw	0
  1141  001F58  6E06               	movwf	(___atdiv@divisor+2)^(0+1280),c
  1142  001F5A  ECC2  F00F         	call	___atdiv	;wreg free
  1143  001F5E  C501  F560         	movff	?___atdiv,_tempC
  1144  001F62  C502  F561         	movff	?___atdiv+1,_tempC+1
  1145  001F66  C503  F562         	movff	?___atdiv+2,_tempC+2
  1146  001F6A                     
  1147                           ;application.c: 26:     printf("Temp Sensor Result %d \r\n", tempC);
  1148  001F6A  0E9B               	movlw	low STR_5
  1149  001F6C  6E5A               	movwf	printf@fmt^(0+1280),c
  1150  001F6E  0E16               	movlw	high STR_5
  1151  001F70  6E5B               	movwf	(printf@fmt+1)^(0+1280),c
  1152  001F72  C560  F55C         	movff	_tempC,?_printf+2
  1153  001F76  C561  F55D         	movff	_tempC+1,?_printf+3
  1154  001F7A  C562  F55E         	movff	_tempC+2,?_printf+4
  1155  001F7E  EC5F  F013         	call	_printf	;wreg free
  1156  001F82  0012               	return		;funcret
  1157  001F84                     __end_of_TempIndicator_Calc:
  1158                           	callstack 0
  1159                           
  1160 ;; *************** function ___tmul *****************
  1161 ;; Defined at:
  1162 ;;		line 15 in file "C:\Program Files\Microchip\xc8\v2.20\pic\sources\c99\common\Umul24.c"
  1163 ;; Parameters:    Size  Location     Type
  1164 ;;  multiplier      3    0[COMRAM] unsigned um
  1165 ;;  multiplicand    3    3[COMRAM] unsigned um
  1166 ;; Auto vars:     Size  Location     Type
  1167 ;;  product         3    6[COMRAM] unsigned um
  1168 ;; Return value:  Size  Location     Type
  1169 ;;                  3    0[COMRAM] unsigned um
  1170 ;; Registers used:
  1171 ;;		wreg, status,2, status,0
  1172 ;; Tracked objects:
  1173 ;;		On entry : 0/0
  1174 ;;		On exit  : 0/0
  1175 ;;		Unchanged: 0/0
  1176 ;; Data sizes:     COMRAM   BANK5   BANK6   BANK7   BANK8   BANK9  BANK10  BANK11  BANK12  BANK13  BANK14  BANK15  BANK1
      +6  BANK17  BANK18  BANK19  BANK20  BANK21
  1177 ;;      Params:         6       0       0       0       0       0       0       0       0       0       0       0       
      +0       0       0       0       0       0
  1178 ;;      Locals:         3       0       0       0       0       0       0       0       0       0       0       0       
      +0       0       0       0       0       0
  1179 ;;      Temps:          0       0       0       0       0       0       0       0       0       0       0       0       
      +0       0       0       0       0       0
  1180 ;;      Totals:         9       0       0       0       0       0       0       0       0       0       0       0       
      +0       0       0       0       0       0
  1181 ;;Total ram usage:        9 bytes
  1182 ;; Hardware stack levels used:    1
  1183 ;; Hardware stack levels required when called:    3
  1184 ;; This function calls:
  1185 ;;		Nothing
  1186 ;; This function is called by:
  1187 ;;		_TempIndicator_Calc
  1188 ;; This function uses a non-reentrant model
  1189 ;;
  1190                           
  1191                           	psect	text2
  1192  002462                     __ptext2:
  1193                           	callstack 0
  1194  002462                     ___tmul:
  1195                           	callstack 123
  1196  002462  0E00               	movlw	0
  1197  002464  6E07               	movwf	___tmul@product^(0+1280),c
  1198  002466  0E00               	movlw	0
  1199  002468  6E08               	movwf	(___tmul@product+1)^(0+1280),c
  1200  00246A  0E00               	movlw	0
  1201  00246C  6E09               	movwf	(___tmul@product+2)^(0+1280),c
  1202  00246E                     l2897:
  1203  00246E  A001               	btfss	___tmul@multiplier^(0+1280),0,c
  1204  002470  EF3C  F012         	goto	u1411
  1205  002474  EF3E  F012         	goto	u1410
  1206  002478                     u1411:
  1207  002478  EF44  F012         	goto	l2901
  1208  00247C                     u1410:
  1209  00247C  5004               	movf	___tmul@multiplicand^(0+1280),w,c
  1210  00247E  2607               	addwf	___tmul@product^(0+1280),f,c
  1211  002480  5005               	movf	(___tmul@multiplicand+1)^(0+1280),w,c
  1212  002482  2208               	addwfc	(___tmul@product+1)^(0+1280),f,c
  1213  002484  5006               	movf	(___tmul@multiplicand+2)^(0+1280),w,c
  1214  002486  2209               	addwfc	(___tmul@product+2)^(0+1280),f,c
  1215  002488                     l2901:
  1216  002488  90D8               	bcf	status,0,c
  1217  00248A  3604               	rlcf	___tmul@multiplicand^(0+1280),f,c
  1218  00248C  3605               	rlcf	(___tmul@multiplicand+1)^(0+1280),f,c
  1219  00248E  3606               	rlcf	(___tmul@multiplicand+2)^(0+1280),f,c
  1220  002490  90D8               	bcf	status,0,c
  1221  002492  3203               	rrcf	(___tmul@multiplier+2)^(0+1280),f,c
  1222  002494  3202               	rrcf	(___tmul@multiplier+1)^(0+1280),f,c
  1223  002496  3201               	rrcf	___tmul@multiplier^(0+1280),f,c
  1224  002498  5001               	movf	___tmul@multiplier^(0+1280),w,c
  1225  00249A  1002               	iorwf	(___tmul@multiplier+1)^(0+1280),w,c
  1226  00249C  1003               	iorwf	(___tmul@multiplier+2)^(0+1280),w,c
  1227  00249E  A4D8               	btfss	status,2,c
  1228  0024A0  EF54  F012         	goto	u1421
  1229  0024A4  EF56  F012         	goto	u1420
  1230  0024A8                     u1421:
  1231  0024A8  EF37  F012         	goto	l2897
  1232  0024AC                     u1420:
  1233  0024AC  C507  F501         	movff	___tmul@product,?___tmul
  1234  0024B0  C508  F502         	movff	___tmul@product+1,?___tmul+1
  1235  0024B4  C509  F503         	movff	___tmul@product+2,?___tmul+2
  1236  0024B8  0012               	return		;funcret
  1237  0024BA                     __end_of___tmul:
  1238                           	callstack 0
  1239                           
  1240 ;; *************** function ___atdiv *****************
  1241 ;; Defined at:
  1242 ;;		line 7 in file "C:\Program Files\Microchip\xc8\v2.20\pic\sources\c99\common\atdiv.c"
  1243 ;; Parameters:    Size  Location     Type
  1244 ;;  dividend        3    0[COMRAM] m
  1245 ;;  divisor         3    3[COMRAM] m
  1246 ;; Auto vars:     Size  Location     Type
  1247 ;;  quotient        3    8[COMRAM] m
  1248 ;;  sign            1    7[COMRAM] unsigned char 
  1249 ;;  counter         1    6[COMRAM] unsigned char 
  1250 ;; Return value:  Size  Location     Type
  1251 ;;                  3    0[COMRAM] m
  1252 ;; Registers used:
  1253 ;;		wreg, status,2, status,0
  1254 ;; Tracked objects:
  1255 ;;		On entry : 0/0
  1256 ;;		On exit  : 0/0
  1257 ;;		Unchanged: 0/0
  1258 ;; Data sizes:     COMRAM   BANK5   BANK6   BANK7   BANK8   BANK9  BANK10  BANK11  BANK12  BANK13  BANK14  BANK15  BANK1
      +6  BANK17  BANK18  BANK19  BANK20  BANK21
  1259 ;;      Params:         6       0       0       0       0       0       0       0       0       0       0       0       
      +0       0       0       0       0       0
  1260 ;;      Locals:         5       0       0       0       0       0       0       0       0       0       0       0       
      +0       0       0       0       0       0
  1261 ;;      Temps:          0       0       0       0       0       0       0       0       0       0       0       0       
      +0       0       0       0       0       0
  1262 ;;      Totals:        11       0       0       0       0       0       0       0       0       0       0       0       
      +0       0       0       0       0       0
  1263 ;;Total ram usage:       11 bytes
  1264 ;; Hardware stack levels used:    1
  1265 ;; Hardware stack levels required when called:    3
  1266 ;; This function calls:
  1267 ;;		Nothing
  1268 ;; This function is called by:
  1269 ;;		_TempIndicator_Calc
  1270 ;; This function uses a non-reentrant model
  1271 ;;
  1272                           
  1273                           	psect	text3
  1274  001F84                     __ptext3:
  1275                           	callstack 0
  1276  001F84                     ___atdiv:
  1277                           	callstack 123
  1278  001F84  0E00               	movlw	0
  1279  001F86  6E08               	movwf	___atdiv@sign^(0+1280),c
  1280  001F88  BE06               	btfsc	(___atdiv@divisor+2)^(0+1280),7,c
  1281  001F8A  EFCB  F00F         	goto	u1430
  1282  001F8E  EFC9  F00F         	goto	u1431
  1283  001F92                     u1431:
  1284  001F92  EFD3  F00F         	goto	l2913
  1285  001F96                     u1430:
  1286  001F96  1E06               	comf	(___atdiv@divisor+2)^(0+1280),f,c
  1287  001F98  1E05               	comf	(___atdiv@divisor+1)^(0+1280),f,c
  1288  001F9A  6C04               	negf	___atdiv@divisor^(0+1280),c
  1289  001F9C  0E00               	movlw	0
  1290  001F9E  2205               	addwfc	(___atdiv@divisor+1)^(0+1280),f,c
  1291  001FA0  2206               	addwfc	(___atdiv@divisor+2)^(0+1280),f,c
  1292  001FA2  0E01               	movlw	1
  1293  001FA4  6E08               	movwf	___atdiv@sign^(0+1280),c
  1294  001FA6                     l2913:
  1295  001FA6  BE03               	btfsc	(___atdiv@dividend+2)^(0+1280),7,c
  1296  001FA8  EFDA  F00F         	goto	u1440
  1297  001FAC  EFD8  F00F         	goto	u1441
  1298  001FB0                     u1441:
  1299  001FB0  EFE2  F00F         	goto	l2919
  1300  001FB4                     u1440:
  1301  001FB4  1E03               	comf	(___atdiv@dividend+2)^(0+1280),f,c
  1302  001FB6  1E02               	comf	(___atdiv@dividend+1)^(0+1280),f,c
  1303  001FB8  6C01               	negf	___atdiv@dividend^(0+1280),c
  1304  001FBA  0E00               	movlw	0
  1305  001FBC  2202               	addwfc	(___atdiv@dividend+1)^(0+1280),f,c
  1306  001FBE  2203               	addwfc	(___atdiv@dividend+2)^(0+1280),f,c
  1307  001FC0  0E01               	movlw	1
  1308  001FC2  1A08               	xorwf	___atdiv@sign^(0+1280),f,c
  1309  001FC4                     l2919:
  1310  001FC4  0E00               	movlw	0
  1311  001FC6  6E09               	movwf	___atdiv@quotient^(0+1280),c
  1312  001FC8  0E00               	movlw	0
  1313  001FCA  6E0A               	movwf	(___atdiv@quotient+1)^(0+1280),c
  1314  001FCC  0E00               	movlw	0
  1315  001FCE  6E0B               	movwf	(___atdiv@quotient+2)^(0+1280),c
  1316  001FD0  5004               	movf	___atdiv@divisor^(0+1280),w,c
  1317  001FD2  1005               	iorwf	(___atdiv@divisor+1)^(0+1280),w,c
  1318  001FD4  1006               	iorwf	(___atdiv@divisor+2)^(0+1280),w,c
  1319  001FD6  B4D8               	btfsc	status,2,c
  1320  001FD8  EFF0  F00F         	goto	u1451
  1321  001FDC  EFF2  F00F         	goto	u1450
  1322  001FE0                     u1451:
  1323  001FE0  EF21  F010         	goto	l2939
  1324  001FE4                     u1450:
  1325  001FE4  0E01               	movlw	1
  1326  001FE6  6E07               	movwf	___atdiv@counter^(0+1280),c
  1327  001FE8  EFFB  F00F         	goto	l2927
  1328  001FEC                     l2925:
  1329  001FEC  90D8               	bcf	status,0,c
  1330  001FEE  3604               	rlcf	___atdiv@divisor^(0+1280),f,c
  1331  001FF0  3605               	rlcf	(___atdiv@divisor+1)^(0+1280),f,c
  1332  001FF2  3606               	rlcf	(___atdiv@divisor+2)^(0+1280),f,c
  1333  001FF4  2A07               	incf	___atdiv@counter^(0+1280),f,c
  1334  001FF6                     l2927:
  1335  001FF6  AE06               	btfss	(___atdiv@divisor+2)^(0+1280),7,c
  1336  001FF8  EF00  F010         	goto	u1461
  1337  001FFC  EF02  F010         	goto	u1460
  1338  002000                     u1461:
  1339  002000  EFF6  F00F         	goto	l2925
  1340  002004                     u1460:
  1341  002004                     l2929:
  1342  002004  90D8               	bcf	status,0,c
  1343  002006  3609               	rlcf	___atdiv@quotient^(0+1280),f,c
  1344  002008  360A               	rlcf	(___atdiv@quotient+1)^(0+1280),f,c
  1345  00200A  360B               	rlcf	(___atdiv@quotient+2)^(0+1280),f,c
  1346  00200C  5004               	movf	___atdiv@divisor^(0+1280),w,c
  1347  00200E  5C01               	subwf	___atdiv@dividend^(0+1280),w,c
  1348  002010  5005               	movf	(___atdiv@divisor+1)^(0+1280),w,c
  1349  002012  5802               	subwfb	(___atdiv@dividend+1)^(0+1280),w,c
  1350  002014  5006               	movf	(___atdiv@divisor+2)^(0+1280),w,c
  1351  002016  5803               	subwfb	(___atdiv@dividend+2)^(0+1280),w,c
  1352  002018  A0D8               	btfss	status,0,c
  1353  00201A  EF11  F010         	goto	u1471
  1354  00201E  EF13  F010         	goto	u1470
  1355  002022                     u1471:
  1356  002022  EF1A  F010         	goto	l1064
  1357  002026                     u1470:
  1358  002026  5004               	movf	___atdiv@divisor^(0+1280),w,c
  1359  002028  5E01               	subwf	___atdiv@dividend^(0+1280),f,c
  1360  00202A  5005               	movf	(___atdiv@divisor+1)^(0+1280),w,c
  1361  00202C  5A02               	subwfb	(___atdiv@dividend+1)^(0+1280),f,c
  1362  00202E  5006               	movf	(___atdiv@divisor+2)^(0+1280),w,c
  1363  002030  5A03               	subwfb	(___atdiv@dividend+2)^(0+1280),f,c
  1364  002032  8009               	bsf	___atdiv@quotient^(0+1280),0,c
  1365  002034                     l1064:
  1366  002034  90D8               	bcf	status,0,c
  1367  002036  3206               	rrcf	(___atdiv@divisor+2)^(0+1280),f,c
  1368  002038  3205               	rrcf	(___atdiv@divisor+1)^(0+1280),f,c
  1369  00203A  3204               	rrcf	___atdiv@divisor^(0+1280),f,c
  1370  00203C  2E07               	decfsz	___atdiv@counter^(0+1280),f,c
  1371  00203E  EF02  F010         	goto	l2929
  1372  002042                     l2939:
  1373  002042  5008               	movf	___atdiv@sign^(0+1280),w,c
  1374  002044  B4D8               	btfsc	status,2,c
  1375  002046  EF27  F010         	goto	u1481
  1376  00204A  EF29  F010         	goto	u1480
  1377  00204E                     u1481:
  1378  00204E  EF2F  F010         	goto	l2943
  1379  002052                     u1480:
  1380  002052  1E0B               	comf	(___atdiv@quotient+2)^(0+1280),f,c
  1381  002054  1E0A               	comf	(___atdiv@quotient+1)^(0+1280),f,c
  1382  002056  6C09               	negf	___atdiv@quotient^(0+1280),c
  1383  002058  0E00               	movlw	0
  1384  00205A  220A               	addwfc	(___atdiv@quotient+1)^(0+1280),f,c
  1385  00205C  220B               	addwfc	(___atdiv@quotient+2)^(0+1280),f,c
  1386  00205E                     l2943:
  1387  00205E  C509  F501         	movff	___atdiv@quotient,?___atdiv
  1388  002062  C50A  F502         	movff	___atdiv@quotient+1,?___atdiv+1
  1389  002066  C50B  F503         	movff	___atdiv@quotient+2,?___atdiv+2
  1390  00206A  0012               	return		;funcret
  1391  00206C                     __end_of___atdiv:
  1392                           	callstack 0
  1393                           
  1394 ;; *************** function _FLASH_ReadWord *****************
  1395 ;; Defined at:
  1396 ;;		line 73 in file "mcc_generated_files/memory.c"
  1397 ;; Parameters:    Size  Location     Type
  1398 ;;  flashAddr       4    0[COMRAM] unsigned long 
  1399 ;; Auto vars:     Size  Location     Type
  1400 ;;  readWordH       1    7[COMRAM] unsigned char 
  1401 ;;  readWordL       1    6[COMRAM] unsigned char 
  1402 ;; Return value:  Size  Location     Type
  1403 ;;                  2    0[COMRAM] unsigned short 
  1404 ;; Registers used:
  1405 ;;		wreg, status,2
  1406 ;; Tracked objects:
  1407 ;;		On entry : 0/0
  1408 ;;		On exit  : 0/0
  1409 ;;		Unchanged: 0/0
  1410 ;; Data sizes:     COMRAM   BANK5   BANK6   BANK7   BANK8   BANK9  BANK10  BANK11  BANK12  BANK13  BANK14  BANK15  BANK1
      +6  BANK17  BANK18  BANK19  BANK20  BANK21
  1411 ;;      Params:         4       0       0       0       0       0       0       0       0       0       0       0       
      +0       0       0       0       0       0
  1412 ;;      Locals:         2       0       0       0       0       0       0       0       0       0       0       0       
      +0       0       0       0       0       0
  1413 ;;      Temps:          2       0       0       0       0       0       0       0       0       0       0       0       
      +0       0       0       0       0       0
  1414 ;;      Totals:         8       0       0       0       0       0       0       0       0       0       0       0       
      +0       0       0       0       0       0
  1415 ;;Total ram usage:        8 bytes
  1416 ;; Hardware stack levels used:    1
  1417 ;; Hardware stack levels required when called:    3
  1418 ;; This function calls:
  1419 ;;		Nothing
  1420 ;; This function is called by:
  1421 ;;		_TempIndicator_Calc
  1422 ;; This function uses a non-reentrant model
  1423 ;;
  1424                           
  1425                           	psect	text4
  1426  002630                     __ptext4:
  1427                           	callstack 0
  1428  002630                     _FLASH_ReadWord:
  1429                           	callstack 123
  1430  002630                     
  1431                           ;mcc_generated_files/memory.c: 73: uint16_t FLASH_ReadWord(uint32_t flashAddr);mcc_gener
      +                          ated_files/memory.c: 74: {;mcc_generated_files/memory.c: 75:     uint8_t readWordL, read
      +                          WordH;;mcc_generated_files/memory.c: 78:     TBLPTRU = (uint8_t) ((flashAddr & 0x00FF000
      +                          0) >> 16);
  1432  002630  0061  F40C  F4F8   	movff	FLASH_ReadWord@flashAddr+2,tblptru	;volatile
  1433                           
  1434                           ;mcc_generated_files/memory.c: 79:     TBLPTRH = (uint8_t) ((flashAddr & 0x0000FF00) >> 
      +                          8);
  1435  002636  0061  F408  F4F7   	movff	FLASH_ReadWord@flashAddr+1,tblptrh	;volatile
  1436                           
  1437                           ;mcc_generated_files/memory.c: 80:     TBLPTRL = (uint8_t) (flashAddr & 0x000000FF);
  1438  00263C  0061  F404  F4F6   	movff	FLASH_ReadWord@flashAddr,tblptrl	;volatile
  1439  002642  0009               	tblrd		*+	;# 
  1440                           
  1441                           ;mcc_generated_files/memory.c: 84:     readWordL = TABLAT;
  1442  002644  0061 F3D4  F507    	movff	tablat,FLASH_ReadWord@readWordL	;volatile
  1443  00264A  0008               	tblrd		*	;# 
  1444                           
  1445                           ;mcc_generated_files/memory.c: 88:     readWordH = TABLAT;
  1446  00264C  0061 F3D4  F508    	movff	tablat,FLASH_ReadWord@readWordH	;volatile
  1447  002652                     
  1448                           ;mcc_generated_files/memory.c: 90:     return (((uint16_t) readWordH << 8) | (readWordL)
      +                          );
  1449  002652  5008               	movf	FLASH_ReadWord@readWordH^(0+1280),w,c
  1450  002654  6E05               	movwf	??_FLASH_ReadWord^(0+1280),c
  1451  002656  5007               	movf	FLASH_ReadWord@readWordL^(0+1280),w,c
  1452  002658  6E01               	movwf	?_FLASH_ReadWord^(0+1280),c
  1453  00265A  C505  F502         	movff	??_FLASH_ReadWord,?_FLASH_ReadWord+1
  1454  00265E  0012               	return		;funcret
  1455  002660                     __end_of_FLASH_ReadWord:
  1456                           	callstack 0
  1457                           
  1458 ;; *************** function _ADCC_GetConversionResult *****************
  1459 ;; Defined at:
  1460 ;;		line 138 in file "mcc_generated_files/adcc.c"
  1461 ;; Parameters:    Size  Location     Type
  1462 ;;		None
  1463 ;; Auto vars:     Size  Location     Type
  1464 ;;		None
  1465 ;; Return value:  Size  Location     Type
  1466 ;;                  2    0[COMRAM] unsigned short 
  1467 ;; Registers used:
  1468 ;;		wreg, status,2, status,0
  1469 ;; Tracked objects:
  1470 ;;		On entry : 0/0
  1471 ;;		On exit  : 0/0
  1472 ;;		Unchanged: 0/0
  1473 ;; Data sizes:     COMRAM   BANK5   BANK6   BANK7   BANK8   BANK9  BANK10  BANK11  BANK12  BANK13  BANK14  BANK15  BANK1
      +6  BANK17  BANK18  BANK19  BANK20  BANK21
  1474 ;;      Params:         2       0       0       0       0       0       0       0       0       0       0       0       
      +0       0       0       0       0       0
  1475 ;;      Locals:         0       0       0       0       0       0       0       0       0       0       0       0       
      +0       0       0       0       0       0
  1476 ;;      Temps:          2       0       0       0       0       0       0       0       0       0       0       0       
      +0       0       0       0       0       0
  1477 ;;      Totals:         4       0       0       0       0       0       0       0       0       0       0       0       
      +0       0       0       0       0       0
  1478 ;;Total ram usage:        4 bytes
  1479 ;; Hardware stack levels used:    1
  1480 ;; Hardware stack levels required when called:    3
  1481 ;; This function calls:
  1482 ;;		Nothing
  1483 ;; This function is called by:
  1484 ;;		_TempIndicator_Calc
  1485 ;; This function uses a non-reentrant model
  1486 ;;
  1487                           
  1488                           	psect	text5
  1489  00279A                     __ptext5:
  1490                           	callstack 0
  1491  00279A                     _ADCC_GetConversionResult:
  1492                           	callstack 123
  1493  00279A                     
  1494                           ;mcc_generated_files/adcc.c: 141:     return ((adc_result_t)((ADRESH << 8) + ADRESL));
  1495  00279A  0103               	movlb	3	; () banked
  1496  00279C  51EB               	movf	235,w,b	;volatile
  1497  00279E  6E04               	movwf	(??_ADCC_GetConversionResult+1)^(0+1280),c
  1498  0027A0  6A03               	clrf	??_ADCC_GetConversionResult^(0+1280),c
  1499  0027A2  51EA               	movf	234,w,b	;volatile
  1500  0027A4  2403               	addwf	??_ADCC_GetConversionResult^(0+1280),w,c
  1501  0027A6  6E01               	movwf	?_ADCC_GetConversionResult^(0+1280),c
  1502  0027A8  0E00               	movlw	0
  1503  0027AA  2004               	addwfc	(??_ADCC_GetConversionResult+1)^(0+1280),w,c
  1504  0027AC  6E02               	movwf	(?_ADCC_GetConversionResult+1)^(0+1280),c
  1505  0027AE                     
  1506                           ; BSR set to: 3
  1507  0027AE  0012               	return		;funcret
  1508  0027B0                     __end_of_ADCC_GetConversionResult:
  1509                           	callstack 0
  1510                           
  1511 ;; *************** function _SYSTEM_Initialize *****************
  1512 ;; Defined at:
  1513 ;;		line 50 in file "mcc_generated_files/mcc.c"
  1514 ;; Parameters:    Size  Location     Type
  1515 ;;		None
  1516 ;; Auto vars:     Size  Location     Type
  1517 ;;		None
  1518 ;; Return value:  Size  Location     Type
  1519 ;;                  1    wreg      void 
  1520 ;; Registers used:
  1521 ;;		wreg, status,2, status,0, cstack
  1522 ;; Tracked objects:
  1523 ;;		On entry : 0/0
  1524 ;;		On exit  : 0/0
  1525 ;;		Unchanged: 0/0
  1526 ;; Data sizes:     COMRAM   BANK5   BANK6   BANK7   BANK8   BANK9  BANK10  BANK11  BANK12  BANK13  BANK14  BANK15  BANK1
      +6  BANK17  BANK18  BANK19  BANK20  BANK21
  1527 ;;      Params:         0       0       0       0       0       0       0       0       0       0       0       0       
      +0       0       0       0       0       0
  1528 ;;      Locals:         0       0       0       0       0       0       0       0       0       0       0       0       
      +0       0       0       0       0       0
  1529 ;;      Temps:          0       0       0       0       0       0       0       0       0       0       0       0       
      +0       0       0       0       0       0
  1530 ;;      Totals:         0       0       0       0       0       0       0       0       0       0       0       0       
      +0       0       0       0       0       0
  1531 ;;Total ram usage:        0 bytes
  1532 ;; Hardware stack levels used:    1
  1533 ;; Hardware stack levels required when called:    5
  1534 ;; This function calls:
  1535 ;;		_ADCC_Initialize
  1536 ;;		_CLC1_Initialize
  1537 ;;		_FVR_Initialize
  1538 ;;		_INTERRUPT_Initialize
  1539 ;;		_OSCILLATOR_Initialize
  1540 ;;		_PIN_MANAGER_Initialize
  1541 ;;		_PMD_Initialize
  1542 ;;		_PWM1_16BIT_Initialize
  1543 ;;		_TMR1_Initialize
  1544 ;;		_TMR2_Initialize
  1545 ;;		_UART1_Initialize
  1546 ;; This function is called by:
  1547 ;;		_main
  1548 ;; This function uses a non-reentrant model
  1549 ;;
  1550                           
  1551                           	psect	text6
  1552  002690                     __ptext6:
  1553                           	callstack 0
  1554  002690                     _SYSTEM_Initialize:
  1555                           	callstack 122
  1556  002690                     
  1557                           ;mcc_generated_files/mcc.c: 52:     INTERRUPT_Initialize();
  1558  002690  EC0D  F014         	call	_INTERRUPT_Initialize	;wreg free
  1559  002694                     
  1560                           ;mcc_generated_files/mcc.c: 53:     PMD_Initialize();
  1561  002694  ECA5  F013         	call	_PMD_Initialize	;wreg free
  1562  002698                     
  1563                           ;mcc_generated_files/mcc.c: 54:     PIN_MANAGER_Initialize();
  1564  002698  EC20  F011         	call	_PIN_MANAGER_Initialize	;wreg free
  1565  00269C                     
  1566                           ;mcc_generated_files/mcc.c: 55:     OSCILLATOR_Initialize();
  1567  00269C  ECB3  F013         	call	_OSCILLATOR_Initialize	;wreg free
  1568  0026A0                     
  1569                           ;mcc_generated_files/mcc.c: 56:     FVR_Initialize();
  1570  0026A0  EC05  F014         	call	_FVR_Initialize	;wreg free
  1571  0026A4                     
  1572                           ;mcc_generated_files/mcc.c: 57:     CLC1_Initialize();
  1573  0026A4  ECFC  F012         	call	_CLC1_Initialize	;wreg free
  1574  0026A8                     
  1575                           ;mcc_generated_files/mcc.c: 58:     ADCC_Initialize();
  1576  0026A8  EC92  F011         	call	_ADCC_Initialize	;wreg free
  1577  0026AC                     
  1578                           ;mcc_generated_files/mcc.c: 59:     TMR2_Initialize();
  1579  0026AC  EC96  F013         	call	_TMR2_Initialize	;wreg free
  1580  0026B0                     
  1581                           ;mcc_generated_files/mcc.c: 60:     TMR1_Initialize();
  1582  0026B0  ECC2  F012         	call	_TMR1_Initialize	;wreg free
  1583  0026B4                     
  1584                           ;mcc_generated_files/mcc.c: 61:     UART1_Initialize();
  1585  0026B4  ECC8  F011         	call	_UART1_Initialize	;wreg free
  1586  0026B8                     
  1587                           ;mcc_generated_files/mcc.c: 62:     PWM1_16BIT_Initialize();
  1588  0026B8  EC5B  F011         	call	_PWM1_16BIT_Initialize	;wreg free
  1589  0026BC  0012               	return		;funcret
  1590  0026BE                     __end_of_SYSTEM_Initialize:
  1591                           	callstack 0
  1592                           
  1593 ;; *************** function _UART1_Initialize *****************
  1594 ;; Defined at:
  1595 ;;		line 66 in file "mcc_generated_files/uart1.c"
  1596 ;; Parameters:    Size  Location     Type
  1597 ;;		None
  1598 ;; Auto vars:     Size  Location     Type
  1599 ;;		None
  1600 ;; Return value:  Size  Location     Type
  1601 ;;                  1    wreg      void 
  1602 ;; Registers used:
  1603 ;;		wreg, status,2, status,0, cstack
  1604 ;; Tracked objects:
  1605 ;;		On entry : 0/0
  1606 ;;		On exit  : 0/0
  1607 ;;		Unchanged: 0/0
  1608 ;; Data sizes:     COMRAM   BANK5   BANK6   BANK7   BANK8   BANK9  BANK10  BANK11  BANK12  BANK13  BANK14  BANK15  BANK1
      +6  BANK17  BANK18  BANK19  BANK20  BANK21
  1609 ;;      Params:         0       0       0       0       0       0       0       0       0       0       0       0       
      +0       0       0       0       0       0
  1610 ;;      Locals:         0       0       0       0       0       0       0       0       0       0       0       0       
      +0       0       0       0       0       0
  1611 ;;      Temps:          0       0       0       0       0       0       0       0       0       0       0       0       
      +0       0       0       0       0       0
  1612 ;;      Totals:         0       0       0       0       0       0       0       0       0       0       0       0       
      +0       0       0       0       0       0
  1613 ;;Total ram usage:        0 bytes
  1614 ;; Hardware stack levels used:    1
  1615 ;; Hardware stack levels required when called:    4
  1616 ;; This function calls:
  1617 ;;		_UART1_SetErrorHandler
  1618 ;;		_UART1_SetFramingErrorHandler
  1619 ;;		_UART1_SetOverrunErrorHandler
  1620 ;; This function is called by:
  1621 ;;		_SYSTEM_Initialize
  1622 ;; This function uses a non-reentrant model
  1623 ;;
  1624                           
  1625                           	psect	text7
  1626  002390                     __ptext7:
  1627                           	callstack 0
  1628  002390                     _UART1_Initialize:
  1629                           	callstack 122
  1630  002390                     
  1631                           ;mcc_generated_files/uart1.c: 73:     U1P1L = 0x00;
  1632  002390  0E00               	movlw	0
  1633  002392  0102               	movlb	2	; () banked
  1634  002394  6FA5               	movwf	165,b	;volatile
  1635                           
  1636                           ;mcc_generated_files/uart1.c: 76:     U1P1H = 0x00;
  1637  002396  0E00               	movlw	0
  1638  002398  6FA6               	movwf	166,b	;volatile
  1639                           
  1640                           ;mcc_generated_files/uart1.c: 79:     U1P2L = 0x00;
  1641  00239A  0E00               	movlw	0
  1642  00239C  6FA7               	movwf	167,b	;volatile
  1643                           
  1644                           ;mcc_generated_files/uart1.c: 82:     U1P2H = 0x00;
  1645  00239E  0E00               	movlw	0
  1646  0023A0  6FA8               	movwf	168,b	;volatile
  1647                           
  1648                           ;mcc_generated_files/uart1.c: 85:     U1P3L = 0x00;
  1649  0023A2  0E00               	movlw	0
  1650  0023A4  6FA9               	movwf	169,b	;volatile
  1651                           
  1652                           ;mcc_generated_files/uart1.c: 88:     U1P3H = 0x00;
  1653  0023A6  0E00               	movlw	0
  1654  0023A8  6FAA               	movwf	170,b	;volatile
  1655                           
  1656                           ;mcc_generated_files/uart1.c: 91:     U1CON0 = 0xB0;
  1657  0023AA  0EB0               	movlw	176
  1658  0023AC  6FAB               	movwf	171,b	;volatile
  1659                           
  1660                           ;mcc_generated_files/uart1.c: 94:     U1CON1 = 0x80;
  1661  0023AE  0E80               	movlw	128
  1662  0023B0  6FAC               	movwf	172,b	;volatile
  1663                           
  1664                           ;mcc_generated_files/uart1.c: 97:     U1CON2 = 0x00;
  1665  0023B2  0E00               	movlw	0
  1666  0023B4  6FAD               	movwf	173,b	;volatile
  1667                           
  1668                           ;mcc_generated_files/uart1.c: 100:     U1BRGL = 0x82;
  1669  0023B6  0E82               	movlw	130
  1670  0023B8  6FAE               	movwf	174,b	;volatile
  1671                           
  1672                           ;mcc_generated_files/uart1.c: 103:     U1BRGH = 0x06;
  1673  0023BA  0E06               	movlw	6
  1674  0023BC  6FAF               	movwf	175,b	;volatile
  1675                           
  1676                           ;mcc_generated_files/uart1.c: 106:     U1FIFO = 0x00;
  1677  0023BE  0E00               	movlw	0
  1678  0023C0  6FB0               	movwf	176,b	;volatile
  1679                           
  1680                           ;mcc_generated_files/uart1.c: 109:     U1UIR = 0x00;
  1681  0023C2  0E00               	movlw	0
  1682  0023C4  6FB1               	movwf	177,b	;volatile
  1683                           
  1684                           ;mcc_generated_files/uart1.c: 112:     U1ERRIR = 0x00;
  1685  0023C6  0E00               	movlw	0
  1686  0023C8  6FB2               	movwf	178,b	;volatile
  1687                           
  1688                           ;mcc_generated_files/uart1.c: 115:     U1ERRIE = 0x00;
  1689  0023CA  0E00               	movlw	0
  1690  0023CC  6FB3               	movwf	179,b	;volatile
  1691  0023CE                     
  1692                           ; BSR set to: 2
  1693                           ;mcc_generated_files/uart1.c: 118:     UART1_SetFramingErrorHandler(UART1_DefaultFraming
      +                          ErrorHandler);
  1694  0023CE  0E00               	movlw	0
  1695  0023D0  6E01               	movwf	UART1_SetFramingErrorHandler@interruptHandler^(0+1280),c
  1696  0023D2  0E00               	movlw	0
  1697  0023D4  6E02               	movwf	(UART1_SetFramingErrorHandler@interruptHandler+1)^(0+1280),c
  1698  0023D6  ECDD  F013         	call	_UART1_SetFramingErrorHandler	;wreg free
  1699  0023DA                     
  1700                           ;mcc_generated_files/uart1.c: 119:     UART1_SetOverrunErrorHandler(UART1_DefaultOverrun
      +                          ErrorHandler);
  1701  0023DA  0E00               	movlw	0
  1702  0023DC  6E01               	movwf	UART1_SetOverrunErrorHandler@interruptHandler^(0+1280),c
  1703  0023DE  0E00               	movlw	0
  1704  0023E0  6E02               	movwf	(UART1_SetOverrunErrorHandler@interruptHandler+1)^(0+1280),c
  1705  0023E2  ECD8  F013         	call	_UART1_SetOverrunErrorHandler	;wreg free
  1706  0023E6                     
  1707                           ;mcc_generated_files/uart1.c: 120:     UART1_SetErrorHandler(UART1_DefaultErrorHandler);
  1708  0023E6  0E00               	movlw	0
  1709  0023E8  6E01               	movwf	UART1_SetErrorHandler@interruptHandler^(0+1280),c
  1710  0023EA  0E00               	movlw	0
  1711  0023EC  6E02               	movwf	(UART1_SetErrorHandler@interruptHandler+1)^(0+1280),c
  1712  0023EE  ECE2  F013         	call	_UART1_SetErrorHandler	;wreg free
  1713  0023F2                     
  1714                           ;mcc_generated_files/uart1.c: 122:     uart1RxLastError.status = 0;
  1715  0023F2  0E00               	movlw	0
  1716  0023F4  0105               	movlb	5	; () banked
  1717  0023F6  6F73               	movwf	_uart1RxLastError& (0+255),b	;volatile
  1718  0023F8                     
  1719                           ; BSR set to: 5
  1720  0023F8  0012               	return		;funcret
  1721  0023FA                     __end_of_UART1_Initialize:
  1722                           	callstack 0
  1723                           
  1724 ;; *************** function _UART1_SetOverrunErrorHandler *****************
  1725 ;; Defined at:
  1726 ;;		line 204 in file "mcc_generated_files/uart1.c"
  1727 ;; Parameters:    Size  Location     Type
  1728 ;;  interruptHan    2    0[COMRAM] PTR FTN()void 
  1729 ;;		 -> UART1_DefaultOverrunErrorHandler(1), 
  1730 ;; Auto vars:     Size  Location     Type
  1731 ;;		None
  1732 ;; Return value:  Size  Location     Type
  1733 ;;                  1    wreg      void 
  1734 ;; Registers used:
  1735 ;;		wreg, status,2, status,0
  1736 ;; Tracked objects:
  1737 ;;		On entry : 0/0
  1738 ;;		On exit  : 0/0
  1739 ;;		Unchanged: 0/0
  1740 ;; Data sizes:     COMRAM   BANK5   BANK6   BANK7   BANK8   BANK9  BANK10  BANK11  BANK12  BANK13  BANK14  BANK15  BANK1
      +6  BANK17  BANK18  BANK19  BANK20  BANK21
  1741 ;;      Params:         2       0       0       0       0       0       0       0       0       0       0       0       
      +0       0       0       0       0       0
  1742 ;;      Locals:         0       0       0       0       0       0       0       0       0       0       0       0       
      +0       0       0       0       0       0
  1743 ;;      Temps:          0       0       0       0       0       0       0       0       0       0       0       0       
      +0       0       0       0       0       0
  1744 ;;      Totals:         2       0       0       0       0       0       0       0       0       0       0       0       
      +0       0       0       0       0       0
  1745 ;;Total ram usage:        2 bytes
  1746 ;; Hardware stack levels used:    1
  1747 ;; Hardware stack levels required when called:    3
  1748 ;; This function calls:
  1749 ;;		Nothing
  1750 ;; This function is called by:
  1751 ;;		_UART1_Initialize
  1752 ;; This function uses a non-reentrant model
  1753 ;;
  1754                           
  1755                           	psect	text8
  1756  0027B0                     __ptext8:
  1757                           	callstack 0
  1758  0027B0                     _UART1_SetOverrunErrorHandler:
  1759                           	callstack 122
  1760  0027B0                     
  1761                           ;mcc_generated_files/uart1.c: 205:     UART1_OverrunErrorHandler = interruptHandler;
  1762  0027B0  C501  F5A0         	movff	UART1_SetOverrunErrorHandler@interruptHandler,_UART1_OverrunErrorHandler
  1763  0027B4  C502  F5A1         	movff	UART1_SetOverrunErrorHandler@interruptHandler+1,_UART1_OverrunErrorHandler+1
  1764  0027B8  0012               	return		;funcret
  1765  0027BA                     __end_of_UART1_SetOverrunErrorHandler:
  1766                           	callstack 0
  1767                           
  1768 ;; *************** function _UART1_SetFramingErrorHandler *****************
  1769 ;; Defined at:
  1770 ;;		line 200 in file "mcc_generated_files/uart1.c"
  1771 ;; Parameters:    Size  Location     Type
  1772 ;;  interruptHan    2    0[COMRAM] PTR FTN()void 
  1773 ;;		 -> UART1_DefaultFramingErrorHandler(1), 
  1774 ;; Auto vars:     Size  Location     Type
  1775 ;;		None
  1776 ;; Return value:  Size  Location     Type
  1777 ;;                  1    wreg      void 
  1778 ;; Registers used:
  1779 ;;		wreg, status,2, status,0
  1780 ;; Tracked objects:
  1781 ;;		On entry : 0/0
  1782 ;;		On exit  : 0/0
  1783 ;;		Unchanged: 0/0
  1784 ;; Data sizes:     COMRAM   BANK5   BANK6   BANK7   BANK8   BANK9  BANK10  BANK11  BANK12  BANK13  BANK14  BANK15  BANK1
      +6  BANK17  BANK18  BANK19  BANK20  BANK21
  1785 ;;      Params:         2       0       0       0       0       0       0       0       0       0       0       0       
      +0       0       0       0       0       0
  1786 ;;      Locals:         0       0       0       0       0       0       0       0       0       0       0       0       
      +0       0       0       0       0       0
  1787 ;;      Temps:          0       0       0       0       0       0       0       0       0       0       0       0       
      +0       0       0       0       0       0
  1788 ;;      Totals:         2       0       0       0       0       0       0       0       0       0       0       0       
      +0       0       0       0       0       0
  1789 ;;Total ram usage:        2 bytes
  1790 ;; Hardware stack levels used:    1
  1791 ;; Hardware stack levels required when called:    3
  1792 ;; This function calls:
  1793 ;;		Nothing
  1794 ;; This function is called by:
  1795 ;;		_UART1_Initialize
  1796 ;; This function uses a non-reentrant model
  1797 ;;
  1798                           
  1799                           	psect	text9
  1800  0027BA                     __ptext9:
  1801                           	callstack 0
  1802  0027BA                     _UART1_SetFramingErrorHandler:
  1803                           	callstack 122
  1804  0027BA                     
  1805                           ;mcc_generated_files/uart1.c: 201:     UART1_FramingErrorHandler = interruptHandler;
  1806  0027BA  C501  F5A2         	movff	UART1_SetFramingErrorHandler@interruptHandler,_UART1_FramingErrorHandler
  1807  0027BE  C502  F5A3         	movff	UART1_SetFramingErrorHandler@interruptHandler+1,_UART1_FramingErrorHandler+1
  1808  0027C2  0012               	return		;funcret
  1809  0027C4                     __end_of_UART1_SetFramingErrorHandler:
  1810                           	callstack 0
  1811                           
  1812 ;; *************** function _UART1_SetErrorHandler *****************
  1813 ;; Defined at:
  1814 ;;		line 208 in file "mcc_generated_files/uart1.c"
  1815 ;; Parameters:    Size  Location     Type
  1816 ;;  interruptHan    2    0[COMRAM] PTR FTN()void 
  1817 ;;		 -> UART1_DefaultErrorHandler(1), 
  1818 ;; Auto vars:     Size  Location     Type
  1819 ;;		None
  1820 ;; Return value:  Size  Location     Type
  1821 ;;                  1    wreg      void 
  1822 ;; Registers used:
  1823 ;;		wreg, status,2, status,0
  1824 ;; Tracked objects:
  1825 ;;		On entry : 0/0
  1826 ;;		On exit  : 0/0
  1827 ;;		Unchanged: 0/0
  1828 ;; Data sizes:     COMRAM   BANK5   BANK6   BANK7   BANK8   BANK9  BANK10  BANK11  BANK12  BANK13  BANK14  BANK15  BANK1
      +6  BANK17  BANK18  BANK19  BANK20  BANK21
  1829 ;;      Params:         2       0       0       0       0       0       0       0       0       0       0       0       
      +0       0       0       0       0       0
  1830 ;;      Locals:         0       0       0       0       0       0       0       0       0       0       0       0       
      +0       0       0       0       0       0
  1831 ;;      Temps:          0       0       0       0       0       0       0       0       0       0       0       0       
      +0       0       0       0       0       0
  1832 ;;      Totals:         2       0       0       0       0       0       0       0       0       0       0       0       
      +0       0       0       0       0       0
  1833 ;;Total ram usage:        2 bytes
  1834 ;; Hardware stack levels used:    1
  1835 ;; Hardware stack levels required when called:    3
  1836 ;; This function calls:
  1837 ;;		Nothing
  1838 ;; This function is called by:
  1839 ;;		_UART1_Initialize
  1840 ;; This function uses a non-reentrant model
  1841 ;;
  1842                           
  1843                           	psect	text10
  1844  0027C4                     __ptext10:
  1845                           	callstack 0
  1846  0027C4                     _UART1_SetErrorHandler:
  1847                           	callstack 122
  1848  0027C4                     
  1849                           ;mcc_generated_files/uart1.c: 209:     UART1_ErrorHandler = interruptHandler;
  1850  0027C4  C501  F59E         	movff	UART1_SetErrorHandler@interruptHandler,_UART1_ErrorHandler
  1851  0027C8  C502  F59F         	movff	UART1_SetErrorHandler@interruptHandler+1,_UART1_ErrorHandler+1
  1852  0027CC  0012               	return		;funcret
  1853  0027CE                     __end_of_UART1_SetErrorHandler:
  1854                           	callstack 0
  1855                           
  1856 ;; *************** function _TMR2_Initialize *****************
  1857 ;; Defined at:
  1858 ;;		line 62 in file "mcc_generated_files/tmr2.c"
  1859 ;; Parameters:    Size  Location     Type
  1860 ;;		None
  1861 ;; Auto vars:     Size  Location     Type
  1862 ;;		None
  1863 ;; Return value:  Size  Location     Type
  1864 ;;                  1    wreg      void 
  1865 ;; Registers used:
  1866 ;;		wreg, status,2
  1867 ;; Tracked objects:
  1868 ;;		On entry : 0/0
  1869 ;;		On exit  : 0/0
  1870 ;;		Unchanged: 0/0
  1871 ;; Data sizes:     COMRAM   BANK5   BANK6   BANK7   BANK8   BANK9  BANK10  BANK11  BANK12  BANK13  BANK14  BANK15  BANK1
      +6  BANK17  BANK18  BANK19  BANK20  BANK21
  1872 ;;      Params:         0       0       0       0       0       0       0       0       0       0       0       0       
      +0       0       0       0       0       0
  1873 ;;      Locals:         0       0       0       0       0       0       0       0       0       0       0       0       
      +0       0       0       0       0       0
  1874 ;;      Temps:          0       0       0       0       0       0       0       0       0       0       0       0       
      +0       0       0       0       0       0
  1875 ;;      Totals:         0       0       0       0       0       0       0       0       0       0       0       0       
      +0       0       0       0       0       0
  1876 ;;Total ram usage:        0 bytes
  1877 ;; Hardware stack levels used:    1
  1878 ;; Hardware stack levels required when called:    3
  1879 ;; This function calls:
  1880 ;;		Nothing
  1881 ;; This function is called by:
  1882 ;;		_SYSTEM_Initialize
  1883 ;; This function uses a non-reentrant model
  1884 ;;
  1885                           
  1886                           	psect	text11
  1887  00272C                     __ptext11:
  1888                           	callstack 0
  1889  00272C                     _TMR2_Initialize:
  1890                           	callstack 123
  1891  00272C                     
  1892                           ;mcc_generated_files/tmr2.c: 67:     T2CLKCON = 0x04;
  1893  00272C  0E04               	movlw	4
  1894  00272E  0103               	movlb	3	; () banked
  1895  002730  6F20               	movwf	32,b	;volatile
  1896                           
  1897                           ;mcc_generated_files/tmr2.c: 70:     T2HLT = 0x12;
  1898  002732  0E12               	movlw	18
  1899  002734  6F1F               	movwf	31,b	;volatile
  1900                           
  1901                           ;mcc_generated_files/tmr2.c: 73:     T2RST = 0x00;
  1902  002736  0E00               	movlw	0
  1903  002738  6F21               	movwf	33,b	;volatile
  1904                           
  1905                           ;mcc_generated_files/tmr2.c: 76:     T2PR = 0xE8;
  1906  00273A  0EE8               	movlw	232
  1907  00273C  6F1D               	movwf	29,b	;volatile
  1908                           
  1909                           ;mcc_generated_files/tmr2.c: 79:     T2TMR = 0x00;
  1910  00273E  0E00               	movlw	0
  1911  002740  6F1C               	movwf	28,b	;volatile
  1912  002742                     
  1913                           ; BSR set to: 3
  1914                           ;mcc_generated_files/tmr2.c: 82:     PIR3bits.TMR2IF = 0;
  1915  002742  96B6               	bcf	182,3,c	;volatile
  1916                           
  1917                           ;mcc_generated_files/tmr2.c: 85:     T2CON = 0xC0;
  1918  002744  0EC0               	movlw	192
  1919  002746  6F1E               	movwf	30,b	;volatile
  1920  002748                     
  1921                           ; BSR set to: 3
  1922  002748  0012               	return		;funcret
  1923  00274A                     __end_of_TMR2_Initialize:
  1924                           	callstack 0
  1925                           
  1926 ;; *************** function _TMR1_Initialize *****************
  1927 ;; Defined at:
  1928 ;;		line 63 in file "mcc_generated_files/tmr1.c"
  1929 ;; Parameters:    Size  Location     Type
  1930 ;;		None
  1931 ;; Auto vars:     Size  Location     Type
  1932 ;;		None
  1933 ;; Return value:  Size  Location     Type
  1934 ;;                  1    wreg      void 
  1935 ;; Registers used:
  1936 ;;		wreg, status,2, status,0
  1937 ;; Tracked objects:
  1938 ;;		On entry : 0/0
  1939 ;;		On exit  : 0/0
  1940 ;;		Unchanged: 0/0
  1941 ;; Data sizes:     COMRAM   BANK5   BANK6   BANK7   BANK8   BANK9  BANK10  BANK11  BANK12  BANK13  BANK14  BANK15  BANK1
      +6  BANK17  BANK18  BANK19  BANK20  BANK21
  1942 ;;      Params:         0       0       0       0       0       0       0       0       0       0       0       0       
      +0       0       0       0       0       0
  1943 ;;      Locals:         0       0       0       0       0       0       0       0       0       0       0       0       
      +0       0       0       0       0       0
  1944 ;;      Temps:          2       0       0       0       0       0       0       0       0       0       0       0       
      +0       0       0       0       0       0
  1945 ;;      Totals:         2       0       0       0       0       0       0       0       0       0       0       0       
      +0       0       0       0       0       0
  1946 ;;Total ram usage:        2 bytes
  1947 ;; Hardware stack levels used:    1
  1948 ;; Hardware stack levels required when called:    3
  1949 ;; This function calls:
  1950 ;;		Nothing
  1951 ;; This function is called by:
  1952 ;;		_SYSTEM_Initialize
  1953 ;; This function uses a non-reentrant model
  1954 ;;
  1955                           
  1956                           	psect	text12
  1957  002584                     __ptext12:
  1958                           	callstack 0
  1959  002584                     _TMR1_Initialize:
  1960                           	callstack 123
  1961  002584                     
  1962                           ;mcc_generated_files/tmr1.c: 68:     T1GCON = 0x00;
  1963  002584  0E00               	movlw	0
  1964  002586  0103               	movlb	3	; () banked
  1965  002588  6F15               	movwf	21,b	;volatile
  1966                           
  1967                           ;mcc_generated_files/tmr1.c: 71:     T1GATE = 0x00;
  1968  00258A  0E00               	movlw	0
  1969  00258C  6F16               	movwf	22,b	;volatile
  1970                           
  1971                           ;mcc_generated_files/tmr1.c: 74:     T1CLK = 0x04;
  1972  00258E  0E04               	movlw	4
  1973  002590  6F17               	movwf	23,b	;volatile
  1974                           
  1975                           ;mcc_generated_files/tmr1.c: 77:     TMR1H = 0xC3;
  1976  002592  0EC3               	movlw	195
  1977  002594  6F13               	movwf	19,b	;volatile
  1978                           
  1979                           ;mcc_generated_files/tmr1.c: 80:     TMR1L = 0x74;
  1980  002596  0E74               	movlw	116
  1981  002598  6F12               	movwf	18,b	;volatile
  1982  00259A                     
  1983                           ; BSR set to: 3
  1984                           ;mcc_generated_files/tmr1.c: 83:     PIR3bits.TMR1IF = 0;
  1985  00259A  98B6               	bcf	182,4,c	;volatile
  1986  00259C                     
  1987                           ; BSR set to: 3
  1988                           ;mcc_generated_files/tmr1.c: 86:     timer1ReloadVal=(uint16_t)((TMR1H << 8) | TMR1L);
  1989  00259C  5112               	movf	18,w,b	;volatile
  1990  00259E  0060 FC4C  F501    	movff	787,??_TMR1_Initialize	;volatile
  1991  0025A4  6A02               	clrf	(??_TMR1_Initialize+1)^(0+1280),c
  1992  0025A6  C501  F502         	movff	??_TMR1_Initialize,??_TMR1_Initialize+1
  1993  0025AA  6A01               	clrf	??_TMR1_Initialize^(0+1280),c
  1994  0025AC  1001               	iorwf	??_TMR1_Initialize^(0+1280),w,c
  1995  0025AE  0105               	movlb	5	; () banked
  1996  0025B0  6F94               	movwf	_timer1ReloadVal& (0+255),b	;volatile
  1997  0025B2  5002               	movf	(??_TMR1_Initialize+1)^(0+1280),w,c
  1998  0025B4  6F95               	movwf	(_timer1ReloadVal+1)& (0+255),b	;volatile
  1999  0025B6                     
  2000                           ; BSR set to: 5
  2001                           ;mcc_generated_files/tmr1.c: 89:     T1CON = 0x05;
  2002  0025B6  0E05               	movlw	5
  2003  0025B8  0103               	movlb	3	; () banked
  2004  0025BA  6F14               	movwf	20,b	;volatile
  2005  0025BC                     
  2006                           ; BSR set to: 3
  2007  0025BC  0012               	return		;funcret
  2008  0025BE                     __end_of_TMR1_Initialize:
  2009                           	callstack 0
  2010                           
  2011 ;; *************** function _PWM1_16BIT_Initialize *****************
  2012 ;; Defined at:
  2013 ;;		line 63 in file "mcc_generated_files/pwm1_16bit.c"
  2014 ;; Parameters:    Size  Location     Type
  2015 ;;		None
  2016 ;; Auto vars:     Size  Location     Type
  2017 ;;		None
  2018 ;; Return value:  Size  Location     Type
  2019 ;;                  1    wreg      void 
  2020 ;; Registers used:
  2021 ;;		wreg, status,2, status,0, cstack
  2022 ;; Tracked objects:
  2023 ;;		On entry : 0/0
  2024 ;;		On exit  : 0/0
  2025 ;;		Unchanged: 0/0
  2026 ;; Data sizes:     COMRAM   BANK5   BANK6   BANK7   BANK8   BANK9  BANK10  BANK11  BANK12  BANK13  BANK14  BANK15  BANK1
      +6  BANK17  BANK18  BANK19  BANK20  BANK21
  2027 ;;      Params:         0       0       0       0       0       0       0       0       0       0       0       0       
      +0       0       0       0       0       0
  2028 ;;      Locals:         0       0       0       0       0       0       0       0       0       0       0       0       
      +0       0       0       0       0       0
  2029 ;;      Temps:          0       0       0       0       0       0       0       0       0       0       0       0       
      +0       0       0       0       0       0
  2030 ;;      Totals:         0       0       0       0       0       0       0       0       0       0       0       0       
      +0       0       0       0       0       0
  2031 ;;Total ram usage:        0 bytes
  2032 ;; Hardware stack levels used:    1
  2033 ;; Hardware stack levels required when called:    4
  2034 ;; This function calls:
  2035 ;;		_PWM1_16BIT_Period_SetInterruptHandler
  2036 ;;		_PWM1_16BIT_Slice1Output1_SetInterruptHandler
  2037 ;;		_PWM1_16BIT_Slice1Output2_SetInterruptHandler
  2038 ;; This function is called by:
  2039 ;;		_SYSTEM_Initialize
  2040 ;; This function uses a non-reentrant model
  2041 ;;
  2042                           
  2043                           	psect	text13
  2044  0022B6                     __ptext13:
  2045                           	callstack 0
  2046  0022B6                     _PWM1_16BIT_Initialize:
  2047                           	callstack 122
  2048  0022B6                     
  2049                           ;mcc_generated_files/pwm1_16bit.c: 66:     PWM1ERS = 0x00;
  2050  0022B6  0E00               	movlw	0
  2051  0022B8  6E60               	movwf	96,c	;volatile
  2052                           
  2053                           ;mcc_generated_files/pwm1_16bit.c: 69:     PWM1CLK = 0x02;
  2054  0022BA  0E02               	movlw	2
  2055  0022BC  6E61               	movwf	97,c	;volatile
  2056                           
  2057                           ;mcc_generated_files/pwm1_16bit.c: 72:     PWM1LDS = 0x00;
  2058  0022BE  0E00               	movlw	0
  2059  0022C0  6E62               	movwf	98,c	;volatile
  2060                           
  2061                           ;mcc_generated_files/pwm1_16bit.c: 75:     PWM1PRL = 0x7F;
  2062  0022C2  0E7F               	movlw	127
  2063  0022C4  6E63               	movwf	99,c	;volatile
  2064                           
  2065                           ;mcc_generated_files/pwm1_16bit.c: 78:     PWM1PRH = 0x02;
  2066  0022C6  0E02               	movlw	2
  2067  0022C8  6E64               	movwf	100,c	;volatile
  2068                           
  2069                           ;mcc_generated_files/pwm1_16bit.c: 81:     PWM1CPRE = 0x00;
  2070  0022CA  0E00               	movlw	0
  2071  0022CC  6E65               	movwf	101,c	;volatile
  2072                           
  2073                           ;mcc_generated_files/pwm1_16bit.c: 84:     PWM1PIPOS = 0x00;
  2074  0022CE  0E00               	movlw	0
  2075  0022D0  6E66               	movwf	102,c	;volatile
  2076                           
  2077                           ;mcc_generated_files/pwm1_16bit.c: 87:     PWM1GIR = 0x00;
  2078  0022D2  0E00               	movlw	0
  2079  0022D4  6E67               	movwf	103,c	;volatile
  2080                           
  2081                           ;mcc_generated_files/pwm1_16bit.c: 90:     PWM1GIE = 0x00;
  2082  0022D6  0E00               	movlw	0
  2083  0022D8  6E68               	movwf	104,c	;volatile
  2084                           
  2085                           ;mcc_generated_files/pwm1_16bit.c: 93:     PWM1S1CFG = 0x80;
  2086  0022DA  0E80               	movlw	128
  2087  0022DC  6E6A               	movwf	106,c	;volatile
  2088                           
  2089                           ;mcc_generated_files/pwm1_16bit.c: 96:     PWM1S1P1L = 0xA0;
  2090  0022DE  0EA0               	movlw	160
  2091  0022E0  6E6B               	movwf	107,c	;volatile
  2092                           
  2093                           ;mcc_generated_files/pwm1_16bit.c: 99:     PWM1S1P1H = 0x00;
  2094  0022E2  0E00               	movlw	0
  2095  0022E4  6E6C               	movwf	108,c	;volatile
  2096                           
  2097                           ;mcc_generated_files/pwm1_16bit.c: 102:     PWM1S1P2L = 0xA0;
  2098  0022E6  0EA0               	movlw	160
  2099  0022E8  6E6D               	movwf	109,c	;volatile
  2100                           
  2101                           ;mcc_generated_files/pwm1_16bit.c: 105:     PWM1S1P2H = 0x00;
  2102  0022EA  0E00               	movlw	0
  2103  0022EC  6E6E               	movwf	110,c	;volatile
  2104  0022EE                     
  2105                           ;mcc_generated_files/pwm1_16bit.c: 108:     PIR4bits.PWM1PIF = 0;
  2106  0022EE  9CB7               	bcf	183,6,c	;volatile
  2107  0022F0                     
  2108                           ;mcc_generated_files/pwm1_16bit.c: 111:     PIR4bits.PWM1IF = 0;
  2109  0022F0  9EB7               	bcf	183,7,c	;volatile
  2110  0022F2                     
  2111                           ;mcc_generated_files/pwm1_16bit.c: 114:     PWM1GIRbits.S1P1IF = 0;
  2112  0022F2  9067               	bcf	103,0,c	;volatile
  2113  0022F4                     
  2114                           ;mcc_generated_files/pwm1_16bit.c: 117:     PWM1GIRbits.S1P2IF = 0;
  2115  0022F4  9267               	bcf	103,1,c	;volatile
  2116  0022F6                     
  2117                           ;mcc_generated_files/pwm1_16bit.c: 120:     PIE4bits.PWM1IE = 0;
  2118  0022F6  9EAC               	bcf	172,7,c	;volatile
  2119  0022F8                     
  2120                           ;mcc_generated_files/pwm1_16bit.c: 123:     PIE4bits.PWM1PIE = 0;
  2121  0022F8  9CAC               	bcf	172,6,c	;volatile
  2122  0022FA                     
  2123                           ;mcc_generated_files/pwm1_16bit.c: 126:     PWM1_16BIT_Slice1Output1_SetInterruptHandler
      +                          (PWM1_16BIT_Slice1Output1_DefaultInterruptHandler);
  2124  0022FA  0E00               	movlw	0
  2125  0022FC  6E01               	movwf	PWM1_16BIT_Slice1Output1_SetInterruptHandler@InterruptHandler^(0+1280),c
  2126  0022FE  0E00               	movlw	0
  2127  002300  6E02               	movwf	(PWM1_16BIT_Slice1Output1_SetInterruptHandler@InterruptHandler+1)^(0+1280),c
  2128  002302  ECEC  F013         	call	_PWM1_16BIT_Slice1Output1_SetInterruptHandler	;wreg free
  2129  002306                     
  2130                           ;mcc_generated_files/pwm1_16bit.c: 127:     PWM1_16BIT_Slice1Output2_SetInterruptHandler
      +                          (PWM1_16BIT_Slice1Output2_DefaultInterruptHandler);
  2131  002306  0E00               	movlw	0
  2132  002308  6E01               	movwf	PWM1_16BIT_Slice1Output2_SetInterruptHandler@InterruptHandler^(0+1280),c
  2133  00230A  0E00               	movlw	0
  2134  00230C  6E02               	movwf	(PWM1_16BIT_Slice1Output2_SetInterruptHandler@InterruptHandler+1)^(0+1280),c
  2135  00230E  ECE7  F013         	call	_PWM1_16BIT_Slice1Output2_SetInterruptHandler	;wreg free
  2136  002312                     
  2137                           ;mcc_generated_files/pwm1_16bit.c: 128:     PWM1_16BIT_Period_SetInterruptHandler(PWM1_1
      +                          6BIT_Period_DefaultInterruptHandler);
  2138  002312  0E00               	movlw	0
  2139  002314  6E01               	movwf	PWM1_16BIT_Period_SetInterruptHandler@InterruptHandler^(0+1280),c
  2140  002316  0E00               	movlw	0
  2141  002318  6E02               	movwf	(PWM1_16BIT_Period_SetInterruptHandler@InterruptHandler+1)^(0+1280),c
  2142  00231A  ECF1  F013         	call	_PWM1_16BIT_Period_SetInterruptHandler	;wreg free
  2143  00231E                     
  2144                           ;mcc_generated_files/pwm1_16bit.c: 131:     PWM1CON = 0x80;
  2145  00231E  0E80               	movlw	128
  2146  002320  6E69               	movwf	105,c	;volatile
  2147  002322  0012               	return		;funcret
  2148  002324                     __end_of_PWM1_16BIT_Initialize:
  2149                           	callstack 0
  2150                           
  2151 ;; *************** function _PWM1_16BIT_Slice1Output2_SetInterruptHandler *****************
  2152 ;; Defined at:
  2153 ;;		line 197 in file "mcc_generated_files/pwm1_16bit.c"
  2154 ;; Parameters:    Size  Location     Type
  2155 ;;  InterruptHan    2    0[COMRAM] PTR FTN()void 
  2156 ;;		 -> PWM1_16BIT_Slice1Output2_DefaultInterruptHandler(1), 
  2157 ;; Auto vars:     Size  Location     Type
  2158 ;;		None
  2159 ;; Return value:  Size  Location     Type
  2160 ;;                  1    wreg      void 
  2161 ;; Registers used:
  2162 ;;		wreg, status,2, status,0
  2163 ;; Tracked objects:
  2164 ;;		On entry : 0/0
  2165 ;;		On exit  : 0/0
  2166 ;;		Unchanged: 0/0
  2167 ;; Data sizes:     COMRAM   BANK5   BANK6   BANK7   BANK8   BANK9  BANK10  BANK11  BANK12  BANK13  BANK14  BANK15  BANK1
      +6  BANK17  BANK18  BANK19  BANK20  BANK21
  2168 ;;      Params:         2       0       0       0       0       0       0       0       0       0       0       0       
      +0       0       0       0       0       0
  2169 ;;      Locals:         0       0       0       0       0       0       0       0       0       0       0       0       
      +0       0       0       0       0       0
  2170 ;;      Temps:          0       0       0       0       0       0       0       0       0       0       0       0       
      +0       0       0       0       0       0
  2171 ;;      Totals:         2       0       0       0       0       0       0       0       0       0       0       0       
      +0       0       0       0       0       0
  2172 ;;Total ram usage:        2 bytes
  2173 ;; Hardware stack levels used:    1
  2174 ;; Hardware stack levels required when called:    3
  2175 ;; This function calls:
  2176 ;;		Nothing
  2177 ;; This function is called by:
  2178 ;;		_PWM1_16BIT_Initialize
  2179 ;; This function uses a non-reentrant model
  2180 ;;
  2181                           
  2182                           	psect	text14
  2183  0027CE                     __ptext14:
  2184                           	callstack 0
  2185  0027CE                     _PWM1_16BIT_Slice1Output2_SetInterruptHandler:
  2186                           	callstack 122
  2187  0027CE                     
  2188                           ;mcc_generated_files/pwm1_16bit.c: 197: void PWM1_16BIT_Slice1Output2_SetInterruptHandle
      +                          r(void (* InterruptHandler)(void));mcc_generated_files/pwm1_16bit.c: 198: {;mcc_generate
      +                          d_files/pwm1_16bit.c: 199:     PWM1_16BIT_Slice1Output2_InterruptHandler = InterruptHand
      +                          ler;
  2189  0027CE  C501  F59A         	movff	PWM1_16BIT_Slice1Output2_SetInterruptHandler@InterruptHandler,_PWM1_16BIT_Slice1O
      +                          utput2_InterruptHandler
  2190  0027D2  C502  F59B         	movff	PWM1_16BIT_Slice1Output2_SetInterruptHandler@InterruptHandler+1,_PWM1_16BIT_Slice
      +                          1Output2_InterruptHandler+1
  2191  0027D6  0012               	return		;funcret
  2192  0027D8                     __end_of_PWM1_16BIT_Slice1Output2_SetInterruptHandler:
  2193                           	callstack 0
  2194                           
  2195 ;; *************** function _PWM1_16BIT_Slice1Output1_SetInterruptHandler *****************
  2196 ;; Defined at:
  2197 ;;		line 192 in file "mcc_generated_files/pwm1_16bit.c"
  2198 ;; Parameters:    Size  Location     Type
  2199 ;;  InterruptHan    2    0[COMRAM] PTR FTN()void 
  2200 ;;		 -> PWM1_16BIT_Slice1Output1_DefaultInterruptHandler(1), 
  2201 ;; Auto vars:     Size  Location     Type
  2202 ;;		None
  2203 ;; Return value:  Size  Location     Type
  2204 ;;                  1    wreg      void 
  2205 ;; Registers used:
  2206 ;;		wreg, status,2, status,0
  2207 ;; Tracked objects:
  2208 ;;		On entry : 0/0
  2209 ;;		On exit  : 0/0
  2210 ;;		Unchanged: 0/0
  2211 ;; Data sizes:     COMRAM   BANK5   BANK6   BANK7   BANK8   BANK9  BANK10  BANK11  BANK12  BANK13  BANK14  BANK15  BANK1
      +6  BANK17  BANK18  BANK19  BANK20  BANK21
  2212 ;;      Params:         2       0       0       0       0       0       0       0       0       0       0       0       
      +0       0       0       0       0       0
  2213 ;;      Locals:         0       0       0       0       0       0       0       0       0       0       0       0       
      +0       0       0       0       0       0
  2214 ;;      Temps:          0       0       0       0       0       0       0       0       0       0       0       0       
      +0       0       0       0       0       0
  2215 ;;      Totals:         2       0       0       0       0       0       0       0       0       0       0       0       
      +0       0       0       0       0       0
  2216 ;;Total ram usage:        2 bytes
  2217 ;; Hardware stack levels used:    1
  2218 ;; Hardware stack levels required when called:    3
  2219 ;; This function calls:
  2220 ;;		Nothing
  2221 ;; This function is called by:
  2222 ;;		_PWM1_16BIT_Initialize
  2223 ;; This function uses a non-reentrant model
  2224 ;;
  2225                           
  2226                           	psect	text15
  2227  0027D8                     __ptext15:
  2228                           	callstack 0
  2229  0027D8                     _PWM1_16BIT_Slice1Output1_SetInterruptHandler:
  2230                           	callstack 122
  2231  0027D8                     
  2232                           ;mcc_generated_files/pwm1_16bit.c: 192: void PWM1_16BIT_Slice1Output1_SetInterruptHandle
      +                          r(void (* InterruptHandler)(void));mcc_generated_files/pwm1_16bit.c: 193: {;mcc_generate
      +                          d_files/pwm1_16bit.c: 194:     PWM1_16BIT_Slice1Output1_InterruptHandler = InterruptHand
      +                          ler;
  2233  0027D8  C501  F59C         	movff	PWM1_16BIT_Slice1Output1_SetInterruptHandler@InterruptHandler,_PWM1_16BIT_Slice1O
      +                          utput1_InterruptHandler
  2234  0027DC  C502  F59D         	movff	PWM1_16BIT_Slice1Output1_SetInterruptHandler@InterruptHandler+1,_PWM1_16BIT_Slice
      +                          1Output1_InterruptHandler+1
  2235  0027E0  0012               	return		;funcret
  2236  0027E2                     __end_of_PWM1_16BIT_Slice1Output1_SetInterruptHandler:
  2237                           	callstack 0
  2238                           
  2239 ;; *************** function _PWM1_16BIT_Period_SetInterruptHandler *****************
  2240 ;; Defined at:
  2241 ;;		line 202 in file "mcc_generated_files/pwm1_16bit.c"
  2242 ;; Parameters:    Size  Location     Type
  2243 ;;  InterruptHan    2    0[COMRAM] PTR FTN()void 
  2244 ;;		 -> PWM1_16BIT_Period_DefaultInterruptHandler(1), 
  2245 ;; Auto vars:     Size  Location     Type
  2246 ;;		None
  2247 ;; Return value:  Size  Location     Type
  2248 ;;                  1    wreg      void 
  2249 ;; Registers used:
  2250 ;;		wreg, status,2, status,0
  2251 ;; Tracked objects:
  2252 ;;		On entry : 0/0
  2253 ;;		On exit  : 0/0
  2254 ;;		Unchanged: 0/0
  2255 ;; Data sizes:     COMRAM   BANK5   BANK6   BANK7   BANK8   BANK9  BANK10  BANK11  BANK12  BANK13  BANK14  BANK15  BANK1
      +6  BANK17  BANK18  BANK19  BANK20  BANK21
  2256 ;;      Params:         2       0       0       0       0       0       0       0       0       0       0       0       
      +0       0       0       0       0       0
  2257 ;;      Locals:         0       0       0       0       0       0       0       0       0       0       0       0       
      +0       0       0       0       0       0
  2258 ;;      Temps:          0       0       0       0       0       0       0       0       0       0       0       0       
      +0       0       0       0       0       0
  2259 ;;      Totals:         2       0       0       0       0       0       0       0       0       0       0       0       
      +0       0       0       0       0       0
  2260 ;;Total ram usage:        2 bytes
  2261 ;; Hardware stack levels used:    1
  2262 ;; Hardware stack levels required when called:    3
  2263 ;; This function calls:
  2264 ;;		Nothing
  2265 ;; This function is called by:
  2266 ;;		_PWM1_16BIT_Initialize
  2267 ;; This function uses a non-reentrant model
  2268 ;;
  2269                           
  2270                           	psect	text16
  2271  0027E2                     __ptext16:
  2272                           	callstack 0
  2273  0027E2                     _PWM1_16BIT_Period_SetInterruptHandler:
  2274                           	callstack 122
  2275  0027E2                     
  2276                           ;mcc_generated_files/pwm1_16bit.c: 202: void PWM1_16BIT_Period_SetInterruptHandler(void 
      +                          (* InterruptHandler)(void));mcc_generated_files/pwm1_16bit.c: 203: {;mcc_generated_files
      +                          /pwm1_16bit.c: 204:     PWM1_16BIT_Period_InterruptHandler = InterruptHandler;
  2277  0027E2  C501  F598         	movff	PWM1_16BIT_Period_SetInterruptHandler@InterruptHandler,_PWM1_16BIT_Period_Interru
      +                          ptHandler
  2278  0027E6  C502  F599         	movff	PWM1_16BIT_Period_SetInterruptHandler@InterruptHandler+1,_PWM1_16BIT_Period_Inter
      +                          ruptHandler+1
  2279  0027EA  0012               	return		;funcret
  2280  0027EC                     __end_of_PWM1_16BIT_Period_SetInterruptHandler:
  2281                           	callstack 0
  2282                           
  2283 ;; *************** function _PMD_Initialize *****************
  2284 ;; Defined at:
  2285 ;;		line 81 in file "mcc_generated_files/mcc.c"
  2286 ;; Parameters:    Size  Location     Type
  2287 ;;		None
  2288 ;; Auto vars:     Size  Location     Type
  2289 ;;		None
  2290 ;; Return value:  Size  Location     Type
  2291 ;;                  1    wreg      void 
  2292 ;; Registers used:
  2293 ;;		wreg, status,2
  2294 ;; Tracked objects:
  2295 ;;		On entry : 0/0
  2296 ;;		On exit  : 0/0
  2297 ;;		Unchanged: 0/0
  2298 ;; Data sizes:     COMRAM   BANK5   BANK6   BANK7   BANK8   BANK9  BANK10  BANK11  BANK12  BANK13  BANK14  BANK15  BANK1
      +6  BANK17  BANK18  BANK19  BANK20  BANK21
  2299 ;;      Params:         0       0       0       0       0       0       0       0       0       0       0       0       
      +0       0       0       0       0       0
  2300 ;;      Locals:         0       0       0       0       0       0       0       0       0       0       0       0       
      +0       0       0       0       0       0
  2301 ;;      Temps:          0       0       0       0       0       0       0       0       0       0       0       0       
      +0       0       0       0       0       0
  2302 ;;      Totals:         0       0       0       0       0       0       0       0       0       0       0       0       
      +0       0       0       0       0       0
  2303 ;;Total ram usage:        0 bytes
  2304 ;; Hardware stack levels used:    1
  2305 ;; Hardware stack levels required when called:    3
  2306 ;; This function calls:
  2307 ;;		Nothing
  2308 ;; This function is called by:
  2309 ;;		_SYSTEM_Initialize
  2310 ;; This function uses a non-reentrant model
  2311 ;;
  2312                           
  2313                           	psect	text17
  2314  00274A                     __ptext17:
  2315                           	callstack 0
  2316  00274A                     _PMD_Initialize:
  2317                           	callstack 123
  2318  00274A                     
  2319                           ;mcc_generated_files/mcc.c: 84:     PMD0 = 0x00;
  2320  00274A  0E00               	movlw	0
  2321  00274C  0100               	movlb	0	; () banked
  2322  00274E  6F63               	movwf	99,b	;volatile
  2323                           
  2324                           ;mcc_generated_files/mcc.c: 86:     PMD1 = 0x00;
  2325  002750  0E00               	movlw	0
  2326  002752  6F64               	movwf	100,b	;volatile
  2327                           
  2328                           ;mcc_generated_files/mcc.c: 88:     PMD2 = 0x00;
  2329  002754  0E00               	movlw	0
  2330  002756  6F65               	movwf	101,b	;volatile
  2331                           
  2332                           ;mcc_generated_files/mcc.c: 90:     PMD3 = 0x00;
  2333  002758  0E00               	movlw	0
  2334  00275A  6F66               	movwf	102,b	;volatile
  2335                           
  2336                           ;mcc_generated_files/mcc.c: 92:     PMD4 = 0x00;
  2337  00275C  0E00               	movlw	0
  2338  00275E  6F67               	movwf	103,b	;volatile
  2339                           
  2340                           ;mcc_generated_files/mcc.c: 94:     PMD5 = 0x00;
  2341  002760  0E00               	movlw	0
  2342  002762  6F68               	movwf	104,b	;volatile
  2343  002764                     
  2344                           ; BSR set to: 0
  2345  002764  0012               	return		;funcret
  2346  002766                     __end_of_PMD_Initialize:
  2347                           	callstack 0
  2348                           
  2349 ;; *************** function _PIN_MANAGER_Initialize *****************
  2350 ;; Defined at:
  2351 ;;		line 55 in file "mcc_generated_files/pin_manager.c"
  2352 ;; Parameters:    Size  Location     Type
  2353 ;;		None
  2354 ;; Auto vars:     Size  Location     Type
  2355 ;;		None
  2356 ;; Return value:  Size  Location     Type
  2357 ;;                  1    wreg      void 
  2358 ;; Registers used:
  2359 ;;		wreg, status,2
  2360 ;; Tracked objects:
  2361 ;;		On entry : 0/0
  2362 ;;		On exit  : 0/0
  2363 ;;		Unchanged: 0/0
  2364 ;; Data sizes:     COMRAM   BANK5   BANK6   BANK7   BANK8   BANK9  BANK10  BANK11  BANK12  BANK13  BANK14  BANK15  BANK1
      +6  BANK17  BANK18  BANK19  BANK20  BANK21
  2365 ;;      Params:         0       0       0       0       0       0       0       0       0       0       0       0       
      +0       0       0       0       0       0
  2366 ;;      Locals:         0       0       0       0       0       0       0       0       0       0       0       0       
      +0       0       0       0       0       0
  2367 ;;      Temps:          0       0       0       0       0       0       0       0       0       0       0       0       
      +0       0       0       0       0       0
  2368 ;;      Totals:         0       0       0       0       0       0       0       0       0       0       0       0       
      +0       0       0       0       0       0
  2369 ;;Total ram usage:        0 bytes
  2370 ;; Hardware stack levels used:    1
  2371 ;; Hardware stack levels required when called:    3
  2372 ;; This function calls:
  2373 ;;		Nothing
  2374 ;; This function is called by:
  2375 ;;		_SYSTEM_Initialize
  2376 ;; This function uses a non-reentrant model
  2377 ;;
  2378                           
  2379                           	psect	text18
  2380  002240                     __ptext18:
  2381                           	callstack 0
  2382  002240                     _PIN_MANAGER_Initialize:
  2383                           	callstack 123
  2384  002240                     
  2385                           ;mcc_generated_files/pin_manager.c: 60:     LATA = 0x00;
  2386  002240  0E00               	movlw	0
  2387  002242  6EBE               	movwf	190,c	;volatile
  2388                           
  2389                           ;mcc_generated_files/pin_manager.c: 61:     LATB = 0x00;
  2390  002244  0E00               	movlw	0
  2391  002246  6EBF               	movwf	191,c	;volatile
  2392                           
  2393                           ;mcc_generated_files/pin_manager.c: 62:     LATC = 0x00;
  2394  002248  0E00               	movlw	0
  2395  00224A  6EC0               	movwf	192,c	;volatile
  2396                           
  2397                           ;mcc_generated_files/pin_manager.c: 67:     TRISA = 0x0F;
  2398  00224C  0E0F               	movlw	15
  2399  00224E  6EC6               	movwf	198,c	;volatile
  2400                           
  2401                           ;mcc_generated_files/pin_manager.c: 68:     TRISB = 0x70;
  2402  002250  0E70               	movlw	112
  2403  002252  6EC7               	movwf	199,c	;volatile
  2404                           
  2405                           ;mcc_generated_files/pin_manager.c: 69:     TRISC = 0xFD;
  2406  002254  0EFD               	movlw	253
  2407  002256  6EC8               	movwf	200,c	;volatile
  2408                           
  2409                           ;mcc_generated_files/pin_manager.c: 74:     ANSELC = 0xD6;
  2410  002258  0ED6               	movlw	214
  2411  00225A  0104               	movlb	4	; () banked
  2412  00225C  6F10               	movwf	16,b	;volatile
  2413                           
  2414                           ;mcc_generated_files/pin_manager.c: 75:     ANSELB = 0xD0;
  2415  00225E  0ED0               	movlw	208
  2416  002260  6F08               	movwf	8,b	;volatile
  2417                           
  2418                           ;mcc_generated_files/pin_manager.c: 76:     ANSELA = 0x33;
  2419  002262  0E33               	movlw	51
  2420  002264  6F00               	movwf	0,b	;volatile
  2421                           
  2422                           ;mcc_generated_files/pin_manager.c: 81:     WPUB = 0x00;
  2423  002266  0E00               	movlw	0
  2424  002268  6F09               	movwf	9,b	;volatile
  2425                           
  2426                           ;mcc_generated_files/pin_manager.c: 82:     WPUA = 0x00;
  2427  00226A  0E00               	movlw	0
  2428  00226C  6F01               	movwf	1,b	;volatile
  2429                           
  2430                           ;mcc_generated_files/pin_manager.c: 83:     WPUC = 0x03;
  2431  00226E  0E03               	movlw	3
  2432  002270  6F11               	movwf	17,b	;volatile
  2433                           
  2434                           ;mcc_generated_files/pin_manager.c: 88:     ODCONA = 0x00;
  2435  002272  0E00               	movlw	0
  2436  002274  6F02               	movwf	2,b	;volatile
  2437                           
  2438                           ;mcc_generated_files/pin_manager.c: 89:     ODCONB = 0x00;
  2439  002276  0E00               	movlw	0
  2440  002278  6F0A               	movwf	10,b	;volatile
  2441                           
  2442                           ;mcc_generated_files/pin_manager.c: 90:     ODCONC = 0x00;
  2443  00227A  0E00               	movlw	0
  2444  00227C  6F12               	movwf	18,b	;volatile
  2445                           
  2446                           ;mcc_generated_files/pin_manager.c: 95:     SLRCONA = 0x37;
  2447  00227E  0E37               	movlw	55
  2448  002280  6F03               	movwf	3,b	;volatile
  2449                           
  2450                           ;mcc_generated_files/pin_manager.c: 96:     SLRCONB = 0xF0;
  2451  002282  0EF0               	movlw	240
  2452  002284  6F0B               	movwf	11,b	;volatile
  2453  002286                     
  2454                           ; BSR set to: 4
  2455                           ;mcc_generated_files/pin_manager.c: 97:     SLRCONC = 0xFF;
  2456  002286  6913               	setf	19,b	;volatile
  2457                           
  2458                           ;mcc_generated_files/pin_manager.c: 102:     INLVLA = 0x3F;
  2459  002288  0E3F               	movlw	63
  2460  00228A  6F04               	movwf	4,b	;volatile
  2461                           
  2462                           ;mcc_generated_files/pin_manager.c: 103:     INLVLB = 0xF0;
  2463  00228C  0EF0               	movlw	240
  2464  00228E  6F0C               	movwf	12,b	;volatile
  2465  002290                     
  2466                           ; BSR set to: 4
  2467                           ;mcc_generated_files/pin_manager.c: 104:     INLVLC = 0xFF;
  2468  002290  6914               	setf	20,b	;volatile
  2469                           
  2470                           ;mcc_generated_files/pin_manager.c: 113:     PWMIN1PPS = 0x13;
  2471  002292  0E13               	movlw	19
  2472  002294  0102               	movlb	2	; () banked
  2473  002296  6F58               	movwf	88,b	;volatile
  2474                           
  2475                           ;mcc_generated_files/pin_manager.c: 114:     PWMIN0PPS = 0x15;
  2476  002298  0E15               	movlw	21
  2477  00229A  6F57               	movwf	87,b	;volatile
  2478                           
  2479                           ;mcc_generated_files/pin_manager.c: 115:     RA4PPS = 0x0A;
  2480  00229C  0E0A               	movlw	10
  2481  00229E  6F05               	movwf	5,b	;volatile
  2482                           
  2483                           ;mcc_generated_files/pin_manager.c: 116:     CLCIN0PPS = 0x02;
  2484  0022A0  0E02               	movlw	2
  2485  0022A2  6F61               	movwf	97,b	;volatile
  2486                           
  2487                           ;mcc_generated_files/pin_manager.c: 117:     RB7PPS = 0x10;
  2488  0022A4  0E10               	movlw	16
  2489  0022A6  6F10               	movwf	16,b	;volatile
  2490                           
  2491                           ;mcc_generated_files/pin_manager.c: 118:     T2INPPS = 0x10;
  2492  0022A8  0E10               	movlw	16
  2493  0022AA  6F48               	movwf	72,b	;volatile
  2494                           
  2495                           ;mcc_generated_files/pin_manager.c: 119:     RA5PPS = 0x0B;
  2496  0022AC  0E0B               	movlw	11
  2497  0022AE  6F06               	movwf	6,b	;volatile
  2498                           
  2499                           ;mcc_generated_files/pin_manager.c: 120:     U1RXPPS = 0x0D;
  2500  0022B0  0E0D               	movlw	13
  2501  0022B2  6F72               	movwf	114,b	;volatile
  2502  0022B4                     
  2503                           ; BSR set to: 2
  2504  0022B4  0012               	return		;funcret
  2505  0022B6                     __end_of_PIN_MANAGER_Initialize:
  2506                           	callstack 0
  2507                           
  2508 ;; *************** function _OSCILLATOR_Initialize *****************
  2509 ;; Defined at:
  2510 ;;		line 65 in file "mcc_generated_files/mcc.c"
  2511 ;; Parameters:    Size  Location     Type
  2512 ;;		None
  2513 ;; Auto vars:     Size  Location     Type
  2514 ;;		None
  2515 ;; Return value:  Size  Location     Type
  2516 ;;                  1    wreg      void 
  2517 ;; Registers used:
  2518 ;;		wreg, status,2
  2519 ;; Tracked objects:
  2520 ;;		On entry : 0/0
  2521 ;;		On exit  : 0/0
  2522 ;;		Unchanged: 0/0
  2523 ;; Data sizes:     COMRAM   BANK5   BANK6   BANK7   BANK8   BANK9  BANK10  BANK11  BANK12  BANK13  BANK14  BANK15  BANK1
      +6  BANK17  BANK18  BANK19  BANK20  BANK21
  2524 ;;      Params:         0       0       0       0       0       0       0       0       0       0       0       0       
      +0       0       0       0       0       0
  2525 ;;      Locals:         0       0       0       0       0       0       0       0       0       0       0       0       
      +0       0       0       0       0       0
  2526 ;;      Temps:          0       0       0       0       0       0       0       0       0       0       0       0       
      +0       0       0       0       0       0
  2527 ;;      Totals:         0       0       0       0       0       0       0       0       0       0       0       0       
      +0       0       0       0       0       0
  2528 ;;Total ram usage:        0 bytes
  2529 ;; Hardware stack levels used:    1
  2530 ;; Hardware stack levels required when called:    3
  2531 ;; This function calls:
  2532 ;;		Nothing
  2533 ;; This function is called by:
  2534 ;;		_SYSTEM_Initialize
  2535 ;; This function uses a non-reentrant model
  2536 ;;
  2537                           
  2538                           	psect	text19
  2539  002766                     __ptext19:
  2540                           	callstack 0
  2541  002766                     _OSCILLATOR_Initialize:
  2542                           	callstack 123
  2543  002766                     
  2544                           ;mcc_generated_files/mcc.c: 68:     OSCCON1 = 0x60;
  2545  002766  0E60               	movlw	96
  2546  002768  0100               	movlb	0	; () banked
  2547  00276A  6FAD               	movwf	173,b	;volatile
  2548                           
  2549                           ;mcc_generated_files/mcc.c: 70:     OSCCON3 = 0x00;
  2550  00276C  0E00               	movlw	0
  2551  00276E  6FAF               	movwf	175,b	;volatile
  2552                           
  2553                           ;mcc_generated_files/mcc.c: 72:     OSCEN = 0x00;
  2554  002770  0E00               	movlw	0
  2555  002772  6FB3               	movwf	179,b	;volatile
  2556                           
  2557                           ;mcc_generated_files/mcc.c: 74:     OSCFRQ = 0x08;
  2558  002774  0E08               	movlw	8
  2559  002776  6FB1               	movwf	177,b	;volatile
  2560                           
  2561                           ;mcc_generated_files/mcc.c: 76:     OSCTUNE = 0x00;
  2562  002778  0E00               	movlw	0
  2563  00277A  6FB0               	movwf	176,b	;volatile
  2564                           
  2565                           ;mcc_generated_files/mcc.c: 78:     ACTCON = 0x00;
  2566  00277C  0E00               	movlw	0
  2567  00277E  6FAC               	movwf	172,b	;volatile
  2568  002780                     
  2569                           ; BSR set to: 0
  2570  002780  0012               	return		;funcret
  2571  002782                     __end_of_OSCILLATOR_Initialize:
  2572                           	callstack 0
  2573                           
  2574 ;; *************** function _INTERRUPT_Initialize *****************
  2575 ;; Defined at:
  2576 ;;		line 52 in file "mcc_generated_files/interrupt_manager.c"
  2577 ;; Parameters:    Size  Location     Type
  2578 ;;		None
  2579 ;; Auto vars:     Size  Location     Type
  2580 ;;		None
  2581 ;; Return value:  Size  Location     Type
  2582 ;;                  1    wreg      void 
  2583 ;; Registers used:
  2584 ;;		None
  2585 ;; Tracked objects:
  2586 ;;		On entry : 0/0
  2587 ;;		On exit  : 0/0
  2588 ;;		Unchanged: 0/0
  2589 ;; Data sizes:     COMRAM   BANK5   BANK6   BANK7   BANK8   BANK9  BANK10  BANK11  BANK12  BANK13  BANK14  BANK15  BANK1
      +6  BANK17  BANK18  BANK19  BANK20  BANK21
  2590 ;;      Params:         0       0       0       0       0       0       0       0       0       0       0       0       
      +0       0       0       0       0       0
  2591 ;;      Locals:         0       0       0       0       0       0       0       0       0       0       0       0       
      +0       0       0       0       0       0
  2592 ;;      Temps:          0       0       0       0       0       0       0       0       0       0       0       0       
      +0       0       0       0       0       0
  2593 ;;      Totals:         0       0       0       0       0       0       0       0       0       0       0       0       
      +0       0       0       0       0       0
  2594 ;;Total ram usage:        0 bytes
  2595 ;; Hardware stack levels used:    1
  2596 ;; Hardware stack levels required when called:    3
  2597 ;; This function calls:
  2598 ;;		Nothing
  2599 ;; This function is called by:
  2600 ;;		_SYSTEM_Initialize
  2601 ;; This function uses a non-reentrant model
  2602 ;;
  2603                           
  2604                           	psect	text20
  2605  00281A                     __ptext20:
  2606                           	callstack 0
  2607  00281A                     _INTERRUPT_Initialize:
  2608                           	callstack 123
  2609  00281A                     
  2610                           ;mcc_generated_files/interrupt_manager.c: 55:     INTCON0bits.IPEN = 0;
  2611  00281A  9AD6               	bcf	214,5,c	;volatile
  2612  00281C  0012               	return		;funcret
  2613  00281E                     __end_of_INTERRUPT_Initialize:
  2614                           	callstack 0
  2615                           
  2616 ;; *************** function _FVR_Initialize *****************
  2617 ;; Defined at:
  2618 ;;		line 58 in file "mcc_generated_files/fvr.c"
  2619 ;; Parameters:    Size  Location     Type
  2620 ;;		None
  2621 ;; Auto vars:     Size  Location     Type
  2622 ;;		None
  2623 ;; Return value:  Size  Location     Type
  2624 ;;                  1    wreg      void 
  2625 ;; Registers used:
  2626 ;;		wreg, status,2
  2627 ;; Tracked objects:
  2628 ;;		On entry : 0/0
  2629 ;;		On exit  : 0/0
  2630 ;;		Unchanged: 0/0
  2631 ;; Data sizes:     COMRAM   BANK5   BANK6   BANK7   BANK8   BANK9  BANK10  BANK11  BANK12  BANK13  BANK14  BANK15  BANK1
      +6  BANK17  BANK18  BANK19  BANK20  BANK21
  2632 ;;      Params:         0       0       0       0       0       0       0       0       0       0       0       0       
      +0       0       0       0       0       0
  2633 ;;      Locals:         0       0       0       0       0       0       0       0       0       0       0       0       
      +0       0       0       0       0       0
  2634 ;;      Temps:          0       0       0       0       0       0       0       0       0       0       0       0       
      +0       0       0       0       0       0
  2635 ;;      Totals:         0       0       0       0       0       0       0       0       0       0       0       0       
      +0       0       0       0       0       0
  2636 ;;Total ram usage:        0 bytes
  2637 ;; Hardware stack levels used:    1
  2638 ;; Hardware stack levels required when called:    3
  2639 ;; This function calls:
  2640 ;;		Nothing
  2641 ;; This function is called by:
  2642 ;;		_SYSTEM_Initialize
  2643 ;; This function uses a non-reentrant model
  2644 ;;
  2645                           
  2646                           	psect	text21
  2647  00280A                     __ptext21:
  2648                           	callstack 0
  2649  00280A                     _FVR_Initialize:
  2650                           	callstack 123
  2651  00280A                     
  2652                           ;mcc_generated_files/fvr.c: 61:     FVRCON = 0xB2;
  2653  00280A  0EB2               	movlw	178
  2654  00280C  0103               	movlb	3	; () banked
  2655  00280E  6FD7               	movwf	215,b	;volatile
  2656  002810                     
  2657                           ; BSR set to: 3
  2658  002810  0012               	return		;funcret
  2659  002812                     __end_of_FVR_Initialize:
  2660                           	callstack 0
  2661                           
  2662 ;; *************** function _CLC1_Initialize *****************
  2663 ;; Defined at:
  2664 ;;		line 58 in file "mcc_generated_files/clc1.c"
  2665 ;; Parameters:    Size  Location     Type
  2666 ;;		None
  2667 ;; Auto vars:     Size  Location     Type
  2668 ;;		None
  2669 ;; Return value:  Size  Location     Type
  2670 ;;                  1    wreg      void 
  2671 ;; Registers used:
  2672 ;;		wreg, status,2
  2673 ;; Tracked objects:
  2674 ;;		On entry : 0/0
  2675 ;;		On exit  : 0/0
  2676 ;;		Unchanged: 0/0
  2677 ;; Data sizes:     COMRAM   BANK5   BANK6   BANK7   BANK8   BANK9  BANK10  BANK11  BANK12  BANK13  BANK14  BANK15  BANK1
      +6  BANK17  BANK18  BANK19  BANK20  BANK21
  2678 ;;      Params:         0       0       0       0       0       0       0       0       0       0       0       0       
      +0       0       0       0       0       0
  2679 ;;      Locals:         0       0       0       0       0       0       0       0       0       0       0       0       
      +0       0       0       0       0       0
  2680 ;;      Temps:          0       0       0       0       0       0       0       0       0       0       0       0       
      +0       0       0       0       0       0
  2681 ;;      Totals:         0       0       0       0       0       0       0       0       0       0       0       0       
      +0       0       0       0       0       0
  2682 ;;Total ram usage:        0 bytes
  2683 ;; Hardware stack levels used:    1
  2684 ;; Hardware stack levels required when called:    3
  2685 ;; This function calls:
  2686 ;;		Nothing
  2687 ;; This function is called by:
  2688 ;;		_SYSTEM_Initialize
  2689 ;; This function uses a non-reentrant model
  2690 ;;
  2691                           
  2692                           	psect	text22
  2693  0025F8                     __ptext22:
  2694                           	callstack 0
  2695  0025F8                     _CLC1_Initialize:
  2696                           	callstack 123
  2697  0025F8                     
  2698                           ;mcc_generated_files/clc1.c: 63:     CLCSELECT = 0x00;
  2699  0025F8  0E00               	movlw	0
  2700  0025FA  0100               	movlb	0	; () banked
  2701  0025FC  6FD5               	movwf	213,b	;volatile
  2702                           
  2703                           ;mcc_generated_files/clc1.c: 65:     CLCnPOL = 0x0A;
  2704  0025FE  0E0A               	movlw	10
  2705  002600  6FD7               	movwf	215,b	;volatile
  2706                           
  2707                           ;mcc_generated_files/clc1.c: 67:     CLCnSEL0 = 0x10;
  2708  002602  0E10               	movlw	16
  2709  002604  6FD8               	movwf	216,b	;volatile
  2710                           
  2711                           ;mcc_generated_files/clc1.c: 69:     CLCnSEL1 = 0x00;
  2712  002606  0E00               	movlw	0
  2713  002608  6FD9               	movwf	217,b	;volatile
  2714                           
  2715                           ;mcc_generated_files/clc1.c: 71:     CLCnSEL2 = 0x00;
  2716  00260A  0E00               	movlw	0
  2717  00260C  6FDA               	movwf	218,b	;volatile
  2718                           
  2719                           ;mcc_generated_files/clc1.c: 73:     CLCnSEL3 = 0x00;
  2720  00260E  0E00               	movlw	0
  2721  002610  6FDB               	movwf	219,b	;volatile
  2722                           
  2723                           ;mcc_generated_files/clc1.c: 75:     CLCnGLS0 = 0x02;
  2724  002612  0E02               	movlw	2
  2725  002614  6FDC               	movwf	220,b	;volatile
  2726                           
  2727                           ;mcc_generated_files/clc1.c: 77:     CLCnGLS1 = 0x00;
  2728  002616  0E00               	movlw	0
  2729  002618  6FDD               	movwf	221,b	;volatile
  2730                           
  2731                           ;mcc_generated_files/clc1.c: 79:     CLCnGLS2 = 0x00;
  2732  00261A  0E00               	movlw	0
  2733  00261C  6FDE               	movwf	222,b	;volatile
  2734                           
  2735                           ;mcc_generated_files/clc1.c: 81:     CLCnGLS3 = 0x00;
  2736  00261E  0E00               	movlw	0
  2737  002620  6FDF               	movwf	223,b	;volatile
  2738                           
  2739                           ;mcc_generated_files/clc1.c: 83:     CLCDATA = 0x00;
  2740  002622  0E00               	movlw	0
  2741  002624  6FD4               	movwf	212,b	;volatile
  2742                           
  2743                           ;mcc_generated_files/clc1.c: 85:     CLCnCON = 0x9E;
  2744  002626  0E9E               	movlw	158
  2745  002628  6FD6               	movwf	214,b	;volatile
  2746  00262A                     
  2747                           ; BSR set to: 0
  2748                           ;mcc_generated_files/clc1.c: 88:     PIR0bits.CLC1IF = 0;
  2749  00262A  9AB3               	bcf	179,5,c	;volatile
  2750  00262C                     
  2751                           ; BSR set to: 0
  2752                           ;mcc_generated_files/clc1.c: 90:     PIE0bits.CLC1IE = 1;
  2753  00262C  8AA8               	bsf	168,5,c	;volatile
  2754  00262E                     
  2755                           ; BSR set to: 0
  2756  00262E  0012               	return		;funcret
  2757  002630                     __end_of_CLC1_Initialize:
  2758                           	callstack 0
  2759                           
  2760 ;; *************** function _ADCC_Initialize *****************
  2761 ;; Defined at:
  2762 ;;		line 63 in file "mcc_generated_files/adcc.c"
  2763 ;; Parameters:    Size  Location     Type
  2764 ;;		None
  2765 ;; Auto vars:     Size  Location     Type
  2766 ;;		None
  2767 ;; Return value:  Size  Location     Type
  2768 ;;                  1    wreg      void 
  2769 ;; Registers used:
  2770 ;;		wreg, status,2, status,0, cstack
  2771 ;; Tracked objects:
  2772 ;;		On entry : 0/0
  2773 ;;		On exit  : 0/0
  2774 ;;		Unchanged: 0/0
  2775 ;; Data sizes:     COMRAM   BANK5   BANK6   BANK7   BANK8   BANK9  BANK10  BANK11  BANK12  BANK13  BANK14  BANK15  BANK1
      +6  BANK17  BANK18  BANK19  BANK20  BANK21
  2776 ;;      Params:         0       0       0       0       0       0       0       0       0       0       0       0       
      +0       0       0       0       0       0
  2777 ;;      Locals:         0       0       0       0       0       0       0       0       0       0       0       0       
      +0       0       0       0       0       0
  2778 ;;      Temps:          0       0       0       0       0       0       0       0       0       0       0       0       
      +0       0       0       0       0       0
  2779 ;;      Totals:         0       0       0       0       0       0       0       0       0       0       0       0       
      +0       0       0       0       0       0
  2780 ;;Total ram usage:        0 bytes
  2781 ;; Hardware stack levels used:    1
  2782 ;; Hardware stack levels required when called:    4
  2783 ;; This function calls:
  2784 ;;		_ADCC_SetADIInterruptHandler
  2785 ;; This function is called by:
  2786 ;;		_SYSTEM_Initialize
  2787 ;; This function uses a non-reentrant model
  2788 ;;
  2789                           
  2790                           	psect	text23
  2791  002324                     __ptext23:
  2792                           	callstack 0
  2793  002324                     _ADCC_Initialize:
  2794                           	callstack 122
  2795  002324                     
  2796                           ;mcc_generated_files/adcc.c: 67:     ADLTHL = 0x00;
  2797  002324  0E00               	movlw	0
  2798  002326  0103               	movlb	3	; () banked
  2799  002328  6FD9               	movwf	217,b	;volatile
  2800                           
  2801                           ;mcc_generated_files/adcc.c: 69:     ADLTHH = 0x00;
  2802  00232A  0E00               	movlw	0
  2803  00232C  6FDA               	movwf	218,b	;volatile
  2804                           
  2805                           ;mcc_generated_files/adcc.c: 71:     ADUTHL = 0x00;
  2806  00232E  0E00               	movlw	0
  2807  002330  6FDB               	movwf	219,b	;volatile
  2808                           
  2809                           ;mcc_generated_files/adcc.c: 73:     ADUTHH = 0x00;
  2810  002332  0E00               	movlw	0
  2811  002334  6FDC               	movwf	220,b	;volatile
  2812                           
  2813                           ;mcc_generated_files/adcc.c: 75:     ADSTPTL = 0x00;
  2814  002336  0E00               	movlw	0
  2815  002338  6FDF               	movwf	223,b	;volatile
  2816                           
  2817                           ;mcc_generated_files/adcc.c: 77:     ADSTPTH = 0x00;
  2818  00233A  0E00               	movlw	0
  2819  00233C  6FE0               	movwf	224,b	;volatile
  2820                           
  2821                           ;mcc_generated_files/adcc.c: 79:     ADACCU = 0x00;
  2822  00233E  0E00               	movlw	0
  2823  002340  6FE5               	movwf	229,b	;volatile
  2824                           
  2825                           ;mcc_generated_files/adcc.c: 81:     ADRPT = 0x00;
  2826  002342  0E00               	movlw	0
  2827  002344  6FE7               	movwf	231,b	;volatile
  2828                           
  2829                           ;mcc_generated_files/adcc.c: 83:     ADPCH = 0x00;
  2830  002346  0E00               	movlw	0
  2831  002348  6FEC               	movwf	236,b	;volatile
  2832                           
  2833                           ;mcc_generated_files/adcc.c: 85:     ADACQL = 0x0F;
  2834  00234A  0E0F               	movlw	15
  2835  00234C  6FEE               	movwf	238,b	;volatile
  2836                           
  2837                           ;mcc_generated_files/adcc.c: 87:     ADACQH = 0x00;
  2838  00234E  0E00               	movlw	0
  2839  002350  6FEF               	movwf	239,b	;volatile
  2840                           
  2841                           ;mcc_generated_files/adcc.c: 89:     ADCAP = 0x00;
  2842  002352  0E00               	movlw	0
  2843  002354  6FF0               	movwf	240,b	;volatile
  2844                           
  2845                           ;mcc_generated_files/adcc.c: 91:     ADPREL = 0x00;
  2846  002356  0E00               	movlw	0
  2847  002358  6FF1               	movwf	241,b	;volatile
  2848                           
  2849                           ;mcc_generated_files/adcc.c: 93:     ADPREH = 0x00;
  2850  00235A  0E00               	movlw	0
  2851  00235C  6FF2               	movwf	242,b	;volatile
  2852                           
  2853                           ;mcc_generated_files/adcc.c: 95:     ADCON1 = 0x00;
  2854  00235E  0E00               	movlw	0
  2855  002360  6FF4               	movwf	244,b	;volatile
  2856                           
  2857                           ;mcc_generated_files/adcc.c: 97:     ADCON2 = 0x10;
  2858  002362  0E10               	movlw	16
  2859  002364  6FF5               	movwf	245,b	;volatile
  2860                           
  2861                           ;mcc_generated_files/adcc.c: 99:     ADCON3 = 0x00;
  2862  002366  0E00               	movlw	0
  2863  002368  6FF6               	movwf	246,b	;volatile
  2864                           
  2865                           ;mcc_generated_files/adcc.c: 101:     ADSTAT = 0x00;
  2866  00236A  0E00               	movlw	0
  2867  00236C  6FF7               	movwf	247,b	;volatile
  2868                           
  2869                           ;mcc_generated_files/adcc.c: 103:     ADREF = 0x03;
  2870  00236E  0E03               	movlw	3
  2871  002370  6FF8               	movwf	248,b	;volatile
  2872                           
  2873                           ;mcc_generated_files/adcc.c: 105:     ADACT = 0x03;
  2874  002372  0E03               	movlw	3
  2875  002374  6FF9               	movwf	249,b	;volatile
  2876                           
  2877                           ;mcc_generated_files/adcc.c: 107:     ADCLK = 0x03;
  2878  002376  0E03               	movlw	3
  2879  002378  6FFA               	movwf	250,b	;volatile
  2880                           
  2881                           ;mcc_generated_files/adcc.c: 109:     ADCON0 = 0x94;
  2882  00237A  0E94               	movlw	148
  2883  00237C  6FF3               	movwf	243,b	;volatile
  2884  00237E                     
  2885                           ; BSR set to: 3
  2886                           ;mcc_generated_files/adcc.c: 112:     PIR1bits.ADIF = 0;
  2887  00237E  94B4               	bcf	180,2,c	;volatile
  2888  002380                     
  2889                           ; BSR set to: 3
  2890                           ;mcc_generated_files/adcc.c: 114:     PIE1bits.ADIE = 1;
  2891  002380  84A9               	bsf	169,2,c	;volatile
  2892  002382                     
  2893                           ; BSR set to: 3
  2894                           ;mcc_generated_files/adcc.c: 116:     ADCC_SetADIInterruptHandler(ADCC_DefaultInterruptH
      +                          andler);
  2895  002382  0E12               	movlw	low _ADCC_DefaultInterruptHandler
  2896  002384  6E01               	movwf	ADCC_SetADIInterruptHandler@InterruptHandler^(0+1280),c
  2897  002386  0E28               	movlw	high _ADCC_DefaultInterruptHandler
  2898  002388  6E02               	movwf	(ADCC_SetADIInterruptHandler@InterruptHandler+1)^(0+1280),c
  2899  00238A  ECF6  F013         	call	_ADCC_SetADIInterruptHandler	;wreg free
  2900  00238E  0012               	return		;funcret
  2901  002390                     __end_of_ADCC_Initialize:
  2902                           	callstack 0
  2903                           
  2904 ;; *************** function _ADCC_SetADIInterruptHandler *****************
  2905 ;; Defined at:
  2906 ;;		line 315 in file "mcc_generated_files/adcc.c"
  2907 ;; Parameters:    Size  Location     Type
  2908 ;;  InterruptHan    2    0[COMRAM] PTR FTN()void 
  2909 ;;		 -> ADCC_DefaultInterruptHandler(1), 
  2910 ;; Auto vars:     Size  Location     Type
  2911 ;;		None
  2912 ;; Return value:  Size  Location     Type
  2913 ;;                  1    wreg      void 
  2914 ;; Registers used:
  2915 ;;		wreg, status,2, status,0
  2916 ;; Tracked objects:
  2917 ;;		On entry : 0/0
  2918 ;;		On exit  : 0/0
  2919 ;;		Unchanged: 0/0
  2920 ;; Data sizes:     COMRAM   BANK5   BANK6   BANK7   BANK8   BANK9  BANK10  BANK11  BANK12  BANK13  BANK14  BANK15  BANK1
      +6  BANK17  BANK18  BANK19  BANK20  BANK21
  2921 ;;      Params:         2       0       0       0       0       0       0       0       0       0       0       0       
      +0       0       0       0       0       0
  2922 ;;      Locals:         0       0       0       0       0       0       0       0       0       0       0       0       
      +0       0       0       0       0       0
  2923 ;;      Temps:          0       0       0       0       0       0       0       0       0       0       0       0       
      +0       0       0       0       0       0
  2924 ;;      Totals:         2       0       0       0       0       0       0       0       0       0       0       0       
      +0       0       0       0       0       0
  2925 ;;Total ram usage:        2 bytes
  2926 ;; Hardware stack levels used:    1
  2927 ;; Hardware stack levels required when called:    3
  2928 ;; This function calls:
  2929 ;;		Nothing
  2930 ;; This function is called by:
  2931 ;;		_ADCC_Initialize
  2932 ;; This function uses a non-reentrant model
  2933 ;;
  2934                           
  2935                           	psect	text24
  2936  0027EC                     __ptext24:
  2937                           	callstack 0
  2938  0027EC                     _ADCC_SetADIInterruptHandler:
  2939                           	callstack 122
  2940  0027EC                     
  2941                           ;mcc_generated_files/adcc.c: 316:     ADCC_ADI_InterruptHandler = InterruptHandler;
  2942  0027EC  C501  F596         	movff	ADCC_SetADIInterruptHandler@InterruptHandler,_ADCC_ADI_InterruptHandler
  2943  0027F0  C502  F597         	movff	ADCC_SetADIInterruptHandler@InterruptHandler+1,_ADCC_ADI_InterruptHandler+1
  2944  0027F4  0012               	return		;funcret
  2945  0027F6                     __end_of_ADCC_SetADIInterruptHandler:
  2946                           	callstack 0
  2947                           
  2948 ;; *************** function _IntroSplashMessage *****************
  2949 ;; Defined at:
  2950 ;;		line 12 in file "application.c"
  2951 ;; Parameters:    Size  Location     Type
  2952 ;;		None
  2953 ;; Auto vars:     Size  Location     Type
  2954 ;;		None
  2955 ;; Return value:  Size  Location     Type
  2956 ;;                  1    wreg      void 
  2957 ;; Registers used:
  2958 ;;		wreg, fsr1l, fsr1h, fsr2l, fsr2h, status,2, status,0, tblptrl, tblptrh, tblptru, cstack
  2959 ;; Tracked objects:
  2960 ;;		On entry : 0/0
  2961 ;;		On exit  : 0/0
  2962 ;;		Unchanged: 0/0
  2963 ;; Data sizes:     COMRAM   BANK5   BANK6   BANK7   BANK8   BANK9  BANK10  BANK11  BANK12  BANK13  BANK14  BANK15  BANK1
      +6  BANK17  BANK18  BANK19  BANK20  BANK21
  2964 ;;      Params:         0       0       0       0       0       0       0       0       0       0       0       0       
      +0       0       0       0       0       0
  2965 ;;      Locals:         0       0       0       0       0       0       0       0       0       0       0       0       
      +0       0       0       0       0       0
  2966 ;;      Temps:          0       0       0       0       0       0       0       0       0       0       0       0       
      +0       0       0       0       0       0
  2967 ;;      Totals:         0       0       0       0       0       0       0       0       0       0       0       0       
      +0       0       0       0       0       0
  2968 ;;Total ram usage:        0 bytes
  2969 ;; Hardware stack levels used:    1
  2970 ;; Hardware stack levels required when called:   12
  2971 ;; This function calls:
  2972 ;;		_printf
  2973 ;; This function is called by:
  2974 ;;		_main
  2975 ;; This function uses a non-reentrant model
  2976 ;;
  2977                           
  2978                           	psect	text25
  2979  0026E6                     __ptext25:
  2980                           	callstack 0
  2981  0026E6                     _IntroSplashMessage:
  2982                           	callstack 115
  2983  0026E6                     
  2984                           ;application.c: 13:     printf("PIC18F16Q40 Curiosity Nano Demo \r\n");
  2985  0026E6  0E78               	movlw	low STR_2
  2986  0026E8  6E5A               	movwf	printf@fmt^(0+1280),c
  2987  0026EA  0E16               	movlw	high STR_2
  2988  0026EC  6E5B               	movwf	(printf@fmt+1)^(0+1280),c
  2989  0026EE  EC5F  F013         	call	_printf	;wreg free
  2990                           
  2991                           ;application.c: 14:     printf("Please refer to included readme.md for more information 
      +                          \r\n");
  2992  0026F2  0E3D               	movlw	low STR_3
  2993  0026F4  6E5A               	movwf	printf@fmt^(0+1280),c
  2994  0026F6  0E16               	movlw	high STR_3
  2995  0026F8  6E5B               	movwf	(printf@fmt+1)^(0+1280),c
  2996  0026FA  EC5F  F013         	call	_printf	;wreg free
  2997                           
  2998                           ;application.c: 15:     printf("--------------------------------------------------------
      +                           \r\n");
  2999  0026FE  0E01               	movlw	low STR_4
  3000  002700  6E5A               	movwf	printf@fmt^(0+1280),c
  3001  002702  0E16               	movlw	high STR_4
  3002  002704  6E5B               	movwf	(printf@fmt+1)^(0+1280),c
  3003  002706  EC5F  F013         	call	_printf	;wreg free
  3004  00270A  0012               	return		;funcret
  3005  00270C                     __end_of_IntroSplashMessage:
  3006                           	callstack 0
  3007                           
  3008 ;; *************** function _printf *****************
  3009 ;; Defined at:
  3010 ;;		line 5 in file "C:\Program Files\Microchip\xc8\v2.20\pic\sources\c99\common\printf.c"
  3011 ;; Parameters:    Size  Location     Type
  3012 ;;  fmt             2   89[COMRAM] PTR const unsigned char 
  3013 ;;		 -> STR_5(25), STR_4(60), STR_3(59), STR_2(35), 
  3014 ;;		 -> STR_1(16), 
  3015 ;; Auto vars:     Size  Location     Type
  3016 ;;  ap              2    2[BANK5 ] PTR void [1]
  3017 ;;		 -> ?_printf(2), 
  3018 ;;  ret             2    0        int 
  3019 ;; Return value:  Size  Location     Type
  3020 ;;                  2   89[COMRAM] int 
  3021 ;; Registers used:
  3022 ;;		wreg, fsr1l, fsr1h, fsr2l, fsr2h, status,2, status,0, tblptrl, tblptrh, tblptru, cstack
  3023 ;; Tracked objects:
  3024 ;;		On entry : 0/0
  3025 ;;		On exit  : 0/0
  3026 ;;		Unchanged: 0/0
  3027 ;; Data sizes:     COMRAM   BANK5   BANK6   BANK7   BANK8   BANK9  BANK10  BANK11  BANK12  BANK13  BANK14  BANK15  BANK1
      +6  BANK17  BANK18  BANK19  BANK20  BANK21
  3028 ;;      Params:         5       0       0       0       0       0       0       0       0       0       0       0       
      +0       0       0       0       0       0
  3029 ;;      Locals:         0       4       0       0       0       0       0       0       0       0       0       0       
      +0       0       0       0       0       0
  3030 ;;      Temps:          0       0       0       0       0       0       0       0       0       0       0       0       
      +0       0       0       0       0       0
  3031 ;;      Totals:         5       4       0       0       0       0       0       0       0       0       0       0       
      +0       0       0       0       0       0
  3032 ;;Total ram usage:        9 bytes
  3033 ;; Hardware stack levels used:    1
  3034 ;; Hardware stack levels required when called:   11
  3035 ;; This function calls:
  3036 ;;		_vfprintf
  3037 ;; This function is called by:
  3038 ;;		_main
  3039 ;;		_IntroSplashMessage
  3040 ;;		_TempIndicator_Calc
  3041 ;; This function uses a non-reentrant model
  3042 ;;
  3043                           
  3044                           	psect	text26
  3045  0026BE                     __ptext26:
  3046                           	callstack 0
  3047  0026BE                     _printf:
  3048                           	callstack 116
  3049  0026BE  0E5C               	movlw	low (?_printf+2)
  3050  0026C0  0105               	movlb	5	; () banked
  3051  0026C2  6FA6               	movwf	printf@ap& (0+255),b
  3052  0026C4  0E05               	movlw	high (?_printf+2)
  3053  0026C6  6FA7               	movwf	(printf@ap+1)& (0+255),b
  3054  0026C8                     
  3055                           ; BSR set to: 5
  3056  0026C8  0E00               	movlw	0
  3057  0026CA  6E52               	movwf	vfprintf@fp^(0+1280),c
  3058  0026CC  0E00               	movlw	0
  3059  0026CE  6E53               	movwf	(vfprintf@fp+1)^(0+1280),c
  3060  0026D0  C55A  F554         	movff	printf@fmt,vfprintf@fmt
  3061  0026D4  C55B  F555         	movff	printf@fmt+1,vfprintf@fmt+1
  3062  0026D8  0EA6               	movlw	low printf@ap
  3063  0026DA  6E56               	movwf	vfprintf@ap^(0+1280),c
  3064  0026DC  0E05               	movlw	high printf@ap
  3065  0026DE  6E57               	movwf	(vfprintf@ap+1)^(0+1280),c
  3066  0026E0  ECFD  F011         	call	_vfprintf	;wreg free
  3067  0026E4  0012               	return		;funcret
  3068  0026E6                     __end_of_printf:
  3069                           	callstack 0
  3070                           
  3071 ;; *************** function _vfprintf *****************
  3072 ;; Defined at:
  3073 ;;		line 1368 in file "C:\Program Files\Microchip\xc8\v2.20\pic\sources\c99\common\doprnt.c"
  3074 ;; Parameters:    Size  Location     Type
  3075 ;;  fp              2   81[COMRAM] PTR struct _IO_FILE
  3076 ;;		 -> NULL(0), 
  3077 ;;  fmt             2   83[COMRAM] PTR const unsigned char 
  3078 ;;		 -> STR_5(25), STR_4(60), STR_3(59), STR_2(35), 
  3079 ;;		 -> STR_1(16), 
  3080 ;;  ap              2   85[COMRAM] PTR PTR void 
  3081 ;;		 -> printf@ap(2), 
  3082 ;; Auto vars:     Size  Location     Type
  3083 ;;  cfmt            2   87[COMRAM] PTR unsigned char 
  3084 ;;		 -> STR_5(25), STR_4(60), STR_3(59), STR_2(35), 
  3085 ;;		 -> STR_1(16), 
  3086 ;; Return value:  Size  Location     Type
  3087 ;;                  2   81[COMRAM] int 
  3088 ;; Registers used:
  3089 ;;		wreg, fsr1l, fsr1h, fsr2l, fsr2h, status,2, status,0, tblptrl, tblptrh, tblptru, cstack
  3090 ;; Tracked objects:
  3091 ;;		On entry : 0/0
  3092 ;;		On exit  : 0/0
  3093 ;;		Unchanged: 0/0
  3094 ;; Data sizes:     COMRAM   BANK5   BANK6   BANK7   BANK8   BANK9  BANK10  BANK11  BANK12  BANK13  BANK14  BANK15  BANK1
      +6  BANK17  BANK18  BANK19  BANK20  BANK21
  3095 ;;      Params:         6       0       0       0       0       0       0       0       0       0       0       0       
      +0       0       0       0       0       0
  3096 ;;      Locals:         2       0       0       0       0       0       0       0       0       0       0       0       
      +0       0       0       0       0       0
  3097 ;;      Temps:          0       0       0       0       0       0       0       0       0       0       0       0       
      +0       0       0       0       0       0
  3098 ;;      Totals:         8       0       0       0       0       0       0       0       0       0       0       0       
      +0       0       0       0       0       0
  3099 ;;Total ram usage:        8 bytes
  3100 ;; Hardware stack levels used:    1
  3101 ;; Hardware stack levels required when called:   10
  3102 ;; This function calls:
  3103 ;;		_vfpfcnvrt
  3104 ;; This function is called by:
  3105 ;;		_printf
  3106 ;; This function uses a non-reentrant model
  3107 ;;
  3108                           
  3109                           	psect	text27
  3110  0023FA                     __ptext27:
  3111                           	callstack 0
  3112  0023FA                     _vfprintf:
  3113                           	callstack 116
  3114  0023FA                     
  3115                           ;C:\Program Files\Microchip\xc8\v2.20\pic\sources\c99\common\doprnt.c: 1368: int vfprint
      +                          f(FILE *fp, const char *fmt, va_list ap);C:\Program Files\Microchip\xc8\v2.20\pic\source
      +                          s\c99\common\doprnt.c: 1369: {;C:\Program Files\Microchip\xc8\v2.20\pic\sources\c99\comm
      +                          on\doprnt.c: 1371:     char *cfmt;;C:\Program Files\Microchip\xc8\v2.20\pic\sources\c99\
      +                          common\doprnt.c: 1373:     cfmt = (char *)fmt;
  3116  0023FA  C554  F558         	movff	vfprintf@fmt,vfprintf@cfmt
  3117  0023FE  C555  F559         	movff	vfprintf@fmt+1,vfprintf@cfmt+1
  3118  002402                     
  3119                           ;C:\Program Files\Microchip\xc8\v2.20\pic\sources\c99\common\doprnt.c: 1374:     nout = 
      +                          0;
  3120  002402  0E00               	movlw	0
  3121  002404  0105               	movlb	5	; () banked
  3122  002406  6F64               	movwf	(_nout+1)& (0+255),b
  3123  002408  0E00               	movlw	0
  3124  00240A  6F63               	movwf	_nout& (0+255),b
  3125                           
  3126                           ;C:\Program Files\Microchip\xc8\v2.20\pic\sources\c99\common\doprnt.c: 1375:     while (
      +                          *cfmt) {
  3127  00240C  EF1B  F012         	goto	l2803
  3128  002410                     l2801:
  3129                           
  3130                           ; BSR set to: 5
  3131                           ;C:\Program Files\Microchip\xc8\v2.20\pic\sources\c99\common\doprnt.c: 1376:         nou
      +                          t += vfpfcnvrt(fp, &cfmt, ap);
  3132  002410  C552  F542         	movff	vfprintf@fp,vfpfcnvrt@fp
  3133  002414  C553  F543         	movff	vfprintf@fp+1,vfpfcnvrt@fp+1
  3134  002418  0E58               	movlw	low vfprintf@cfmt
  3135  00241A  6E44               	movwf	vfpfcnvrt@fmt^(0+1280),c
  3136  00241C  0E05               	movlw	high vfprintf@cfmt
  3137  00241E  6E45               	movwf	(vfpfcnvrt@fmt+1)^(0+1280),c
  3138  002420  C556  F546         	movff	vfprintf@ap,vfpfcnvrt@ap
  3139  002424  C557  F547         	movff	vfprintf@ap+1,vfpfcnvrt@ap+1
  3140  002428  ECD5  F00C         	call	_vfpfcnvrt	;wreg free
  3141  00242C  5042               	movf	?_vfpfcnvrt^(0+1280),w,c
  3142  00242E  0105               	movlb	5	; () banked
  3143  002430  2763               	addwf	_nout& (0+255),f,b
  3144  002432  5043               	movf	(?_vfpfcnvrt+1)^(0+1280),w,c
  3145  002434  2364               	addwfc	(_nout+1)& (0+255),f,b
  3146  002436                     l2803:
  3147                           
  3148                           ; BSR set to: 5
  3149                           ;C:\Program Files\Microchip\xc8\v2.20\pic\sources\c99\common\doprnt.c: 1375:     while (
      +                          *cfmt) {
  3150  002436  0061  F560  F4F6   	movff	vfprintf@cfmt,tblptrl
  3151  00243C  0061  F564  F4F7   	movff	vfprintf@cfmt+1,tblptrh
  3152  002442                     	if	1	;Program memory is < 0x10000, tblptru is always zero
  3153  002442  6AF8               	clrf	tblptru,c
  3154  002444                     	endif
  3155  002444                     	if	0	;tblptru may be non-zero
  3156  002444                     	endif
  3157  002444  0008               	tblrd		*
  3158  002446  50F5               	movf	tablat,w,c
  3159  002448  0900               	iorlw	0
  3160  00244A  A4D8               	btfss	status,2,c
  3161  00244C  EF2A  F012         	goto	u1401
  3162  002450  EF2C  F012         	goto	u1400
  3163  002454                     u1401:
  3164  002454  EF08  F012         	goto	l2801
  3165  002458                     u1400:
  3166  002458                     
  3167                           ; BSR set to: 5
  3168                           ;C:\Program Files\Microchip\xc8\v2.20\pic\sources\c99\common\doprnt.c: 1378:     return 
      +                          nout;
  3169  002458  C563  F552         	movff	_nout,?_vfprintf
  3170  00245C  C564  F553         	movff	_nout+1,?_vfprintf+1
  3171  002460                     
  3172                           ; BSR set to: 5
  3173  002460  0012               	return		;funcret
  3174  002462                     __end_of_vfprintf:
  3175                           	callstack 0
  3176                           
  3177 ;; *************** function _vfpfcnvrt *****************
  3178 ;; Defined at:
  3179 ;;		line 670 in file "C:\Program Files\Microchip\xc8\v2.20\pic\sources\c99\common\doprnt.c"
  3180 ;; Parameters:    Size  Location     Type
  3181 ;;  fp              2   65[COMRAM] PTR struct _IO_FILE
  3182 ;;		 -> NULL(0), 
  3183 ;;  fmt             2   67[COMRAM] PTR PTR unsigned char 
  3184 ;;		 -> vfprintf@cfmt(2), 
  3185 ;;  ap              2   69[COMRAM] PTR PTR void 
  3186 ;;		 -> printf@ap(2), 
  3187 ;; Auto vars:     Size  Location     Type
  3188 ;;  ll              8   73[COMRAM] long long 
  3189 ;;  llu             8    0        unsigned long long 
  3190 ;;  f               4    0        unsigned long long 
  3191 ;;  vp              3    0        PTR void 
  3192 ;;  ct              3    0        unsigned char [3]
  3193 ;;  cp              3    0        PTR unsigned char 
  3194 ;;  i               2    0        int 
  3195 ;;  done            2    0        int 
  3196 ;;  c               1    0        unsigned char 
  3197 ;; Return value:  Size  Location     Type
  3198 ;;                  2   65[COMRAM] int 
  3199 ;; Registers used:
  3200 ;;		wreg, fsr1l, fsr1h, fsr2l, fsr2h, status,2, status,0, tblptrl, tblptrh, tblptru, cstack
  3201 ;; Tracked objects:
  3202 ;;		On entry : 0/0
  3203 ;;		On exit  : 0/0
  3204 ;;		Unchanged: 0/0
  3205 ;; Data sizes:     COMRAM   BANK5   BANK6   BANK7   BANK8   BANK9  BANK10  BANK11  BANK12  BANK13  BANK14  BANK15  BANK1
      +6  BANK17  BANK18  BANK19  BANK20  BANK21
  3206 ;;      Params:         6       0       0       0       0       0       0       0       0       0       0       0       
      +0       0       0       0       0       0
  3207 ;;      Locals:         8       0       0       0       0       0       0       0       0       0       0       0       
      +0       0       0       0       0       0
  3208 ;;      Temps:          2       0       0       0       0       0       0       0       0       0       0       0       
      +0       0       0       0       0       0
  3209 ;;      Totals:        16       0       0       0       0       0       0       0       0       0       0       0       
      +0       0       0       0       0       0
  3210 ;;Total ram usage:       16 bytes
  3211 ;; Hardware stack levels used:    1
  3212 ;; Hardware stack levels required when called:    9
  3213 ;; This function calls:
  3214 ;;		_dtoa
  3215 ;;		_fputc
  3216 ;; This function is called by:
  3217 ;;		_vfprintf
  3218 ;; This function uses a non-reentrant model
  3219 ;;
  3220                           
  3221                           	psect	text28
  3222  0019AA                     __ptext28:
  3223                           	callstack 0
  3224  0019AA                     _vfpfcnvrt:
  3225                           	callstack 116
  3226  0019AA                     
  3227                           ;C:\Program Files\Microchip\xc8\v2.20\pic\sources\c99\common\doprnt.c: 670: static int v
      +                          fpfcnvrt(FILE *fp, char *fmt[], va_list ap);C:\Program Files\Microchip\xc8\v2.20\pic\sou
      +                          rces\c99\common\doprnt.c: 671: {;C:\Program Files\Microchip\xc8\v2.20\pic\sources\c99\co
      +                          mmon\doprnt.c: 672:     char c, *cp, ct[3];;C:\Program Files\Microchip\xc8\v2.20\pic\sou
      +                          rces\c99\common\doprnt.c: 673:     int done, i;;C:\Program Files\Microchip\xc8\v2.20\pic
      +                          \sources\c99\common\doprnt.c: 674:     long long ll;;C:\Program Files\Microchip\xc8\v2.2
      +                          0\pic\sources\c99\common\doprnt.c: 675:     unsigned long long llu;
  3228  0019AA  0061  F510  F4D9   	movff	vfpfcnvrt@fmt,fsr2l
  3229  0019B0  0061  F514  F4DA   	movff	vfpfcnvrt@fmt+1,fsr2h
  3230  0019B6  C4DE F4F6          	movff	postinc2,tblptrl
  3231  0019BA  C4DD F4F7          	movff	postdec2,tblptrh
  3232  0019BE                     	if	1	;Program memory is < 0x10000, tblptru is always zero
  3233  0019BE  6AF8               	clrf	tblptru,c
  3234  0019C0                     	endif
  3235  0019C0                     	if	0	;tblptru may be non-zero
  3236  0019C0                     	endif
  3237  0019C0  0008               	tblrd		*
  3238  0019C2  50F5               	movf	tablat,w,c
  3239  0019C4  0A25               	xorlw	37
  3240  0019C6  A4D8               	btfss	status,2,c
  3241  0019C8  EFE8  F00C         	goto	u1361
  3242  0019CC  EFEA  F00C         	goto	u1360
  3243  0019D0                     u1361:
  3244  0019D0  EFAF  F00D         	goto	l2775
  3245  0019D4                     u1360:
  3246  0019D4                     
  3247                           ;C:\Program Files\Microchip\xc8\v2.20\pic\sources\c99\common\doprnt.c: 681:         ++*f
      +                          mt;
  3248  0019D4  0061  F510  F4D9   	movff	vfpfcnvrt@fmt,fsr2l
  3249  0019DA  0061  F514  F4DA   	movff	vfpfcnvrt@fmt+1,fsr2h
  3250  0019E0  2ADE               	incf	postinc2,f,c
  3251  0019E2  0E00               	movlw	0
  3252  0019E4  22DD               	addwfc	postdec2,f,c
  3253  0019E6                     
  3254                           ;C:\Program Files\Microchip\xc8\v2.20\pic\sources\c99\common\doprnt.c: 683:         flag
      +                          s = width = 0;
  3255  0019E6  0E00               	movlw	0
  3256  0019E8  0105               	movlb	5	; () banked
  3257  0019EA  6F66               	movwf	(_width+1)& (0+255),b
  3258  0019EC  0E00               	movlw	0
  3259  0019EE  6F65               	movwf	_width& (0+255),b
  3260  0019F0  C565  F569         	movff	_width,_flags
  3261  0019F4  C566  F56A         	movff	_width+1,_flags+1
  3262  0019F8                     
  3263                           ; BSR set to: 5
  3264                           ;C:\Program Files\Microchip\xc8\v2.20\pic\sources\c99\common\doprnt.c: 684:         prec
      +                           = -1;
  3265  0019F8  6967               	setf	_prec& (0+255),b
  3266  0019FA  6968               	setf	(_prec+1)& (0+255),b
  3267  0019FC                     
  3268                           ; BSR set to: 5
  3269                           ;C:\Program Files\Microchip\xc8\v2.20\pic\sources\c99\common\doprnt.c: 825:         if (
      +                          (*fmt[0] == 'd') || (*fmt[0] == 'i')) {
  3270  0019FC  0061  F510  F4D9   	movff	vfpfcnvrt@fmt,fsr2l
  3271  001A02  0061  F514  F4DA   	movff	vfpfcnvrt@fmt+1,fsr2h
  3272  001A08  C4DE F4F6          	movff	postinc2,tblptrl
  3273  001A0C  C4DD F4F7          	movff	postdec2,tblptrh
  3274  001A10                     	if	1	;Program memory is < 0x10000, tblptru is always zero
  3275  001A10  6AF8               	clrf	tblptru,c
  3276  001A12                     	endif
  3277  001A12                     	if	0	;tblptru may be non-zero
  3278  001A12                     	endif
  3279  001A12  0008               	tblrd		*
  3280  001A14  50F5               	movf	tablat,w,c
  3281  001A16  0A64               	xorlw	100
  3282  001A18  B4D8               	btfsc	status,2,c
  3283  001A1A  EF11  F00D         	goto	u1371
  3284  001A1E  EF13  F00D         	goto	u1370
  3285  001A22                     u1371:
  3286  001A22  EF28  F00D         	goto	l2753
  3287  001A26                     u1370:
  3288  001A26                     
  3289                           ; BSR set to: 5
  3290  001A26  0061  F510  F4D9   	movff	vfpfcnvrt@fmt,fsr2l
  3291  001A2C  0061  F514  F4DA   	movff	vfpfcnvrt@fmt+1,fsr2h
  3292  001A32  C4DE F4F6          	movff	postinc2,tblptrl
  3293  001A36  C4DD F4F7          	movff	postdec2,tblptrh
  3294  001A3A                     	if	1	;Program memory is < 0x10000, tblptru is always zero
  3295  001A3A  6AF8               	clrf	tblptru,c
  3296  001A3C                     	endif
  3297  001A3C                     	if	0	;tblptru may be non-zero
  3298  001A3C                     	endif
  3299  001A3C  0008               	tblrd		*
  3300  001A3E  50F5               	movf	tablat,w,c
  3301  001A40  0A69               	xorlw	105
  3302  001A42  A4D8               	btfss	status,2,c
  3303  001A44  EF26  F00D         	goto	u1381
  3304  001A48  EF28  F00D         	goto	u1380
  3305  001A4C                     u1381:
  3306  001A4C  EF72  F00D         	goto	l2759
  3307  001A50                     u1380:
  3308  001A50                     l2753:
  3309                           
  3310                           ; BSR set to: 5
  3311                           ;C:\Program Files\Microchip\xc8\v2.20\pic\sources\c99\common\doprnt.c: 827:             
      +                          ++*fmt;
  3312  001A50  0061  F510  F4D9   	movff	vfpfcnvrt@fmt,fsr2l
  3313  001A56  0061  F514  F4DA   	movff	vfpfcnvrt@fmt+1,fsr2h
  3314  001A5C  2ADE               	incf	postinc2,f,c
  3315  001A5E  0E00               	movlw	0
  3316  001A60  22DD               	addwfc	postdec2,f,c
  3317                           
  3318                           ;C:\Program Files\Microchip\xc8\v2.20\pic\sources\c99\common\doprnt.c: 828:             
      +                          ll = (long long)(*(int *)__va_arg(*(int **)ap, (int)0));
  3319  001A62  0061  F518  F4D9   	movff	vfpfcnvrt@ap,fsr2l
  3320  001A68  0061  F51C  F4DA   	movff	vfpfcnvrt@ap+1,fsr2h
  3321  001A6E  0061 F37C  F548    	movff	indf2,??_vfpfcnvrt
  3322  001A74  0E02               	movlw	2
  3323  001A76  26DE               	addwf	postinc2,f,c
  3324  001A78  0061 F37C  F549    	movff	indf2,??_vfpfcnvrt+1
  3325  001A7E  0E00               	movlw	0
  3326  001A80  22DD               	addwfc	postdec2,f,c
  3327  001A82  0061  F520  F4D9   	movff	??_vfpfcnvrt,fsr2l
  3328  001A88  0061  F524  F4DA   	movff	??_vfpfcnvrt+1,fsr2h
  3329  001A8E  0061 F378  F54A    	movff	postinc2,vfpfcnvrt@ll
  3330  001A94  0061 F374  F54B    	movff	postdec2,vfpfcnvrt@ll+1
  3331  001A9A  0E00               	movlw	0
  3332  001A9C  BE4B               	btfsc	(vfpfcnvrt@ll+1)^(0+1280),7,c
  3333  001A9E  0EFF               	movlw	-1
  3334  001AA0  6E4C               	movwf	(vfpfcnvrt@ll+2)^(0+1280),c
  3335  001AA2  6E4D               	movwf	(vfpfcnvrt@ll+3)^(0+1280),c
  3336  001AA4  6E4E               	movwf	(vfpfcnvrt@ll+4)^(0+1280),c
  3337  001AA6  6E4F               	movwf	(vfpfcnvrt@ll+5)^(0+1280),c
  3338  001AA8  6E50               	movwf	(vfpfcnvrt@ll+6)^(0+1280),c
  3339  001AAA  6E51               	movwf	(vfpfcnvrt@ll+7)^(0+1280),c
  3340  001AAC                     
  3341                           ; BSR set to: 5
  3342                           ;C:\Program Files\Microchip\xc8\v2.20\pic\sources\c99\common\doprnt.c: 830:             
      +                          return dtoa(fp, ll);
  3343  001AAC  C542  F51E         	movff	vfpfcnvrt@fp,dtoa@fp
  3344  001AB0  C543  F51F         	movff	vfpfcnvrt@fp+1,dtoa@fp+1
  3345  001AB4  C54A  F520         	movff	vfpfcnvrt@ll,dtoa@d
  3346  001AB8  C54B  F521         	movff	vfpfcnvrt@ll+1,dtoa@d+1
  3347  001ABC  C54C  F522         	movff	vfpfcnvrt@ll+2,dtoa@d+2
  3348  001AC0  C54D  F523         	movff	vfpfcnvrt@ll+3,dtoa@d+3
  3349  001AC4  C54E  F524         	movff	vfpfcnvrt@ll+4,dtoa@d+4
  3350  001AC8  C54F  F525         	movff	vfpfcnvrt@ll+5,dtoa@d+5
  3351  001ACC  C550  F526         	movff	vfpfcnvrt@ll+6,dtoa@d+6
  3352  001AD0  C551  F527         	movff	vfpfcnvrt@ll+7,dtoa@d+7
  3353  001AD4  EC63  F00B         	call	_dtoa	;wreg free
  3354  001AD8  C51E  F542         	movff	?_dtoa,?_vfpfcnvrt
  3355  001ADC  C51F  F543         	movff	?_dtoa+1,?_vfpfcnvrt+1
  3356  001AE0  EFCF  F00D         	goto	l1611
  3357  001AE4                     l2759:
  3358                           
  3359                           ; BSR set to: 5
  3360                           ;C:\Program Files\Microchip\xc8\v2.20\pic\sources\c99\common\doprnt.c: 1350:         if 
      +                          ((*fmt)[0] == '%') {
  3361  001AE4  0061  F510  F4D9   	movff	vfpfcnvrt@fmt,fsr2l
  3362  001AEA  0061  F514  F4DA   	movff	vfpfcnvrt@fmt+1,fsr2h
  3363  001AF0  C4DE F4F6          	movff	postinc2,tblptrl
  3364  001AF4  C4DD F4F7          	movff	postdec2,tblptrh
  3365  001AF8                     	if	1	;Program memory is < 0x10000, tblptru is always zero
  3366  001AF8  6AF8               	clrf	tblptru,c
  3367  001AFA                     	endif
  3368  001AFA                     	if	0	;tblptru may be non-zero
  3369  001AFA                     	endif
  3370  001AFA  0008               	tblrd		*
  3371  001AFC  50F5               	movf	tablat,w,c
  3372  001AFE  0A25               	xorlw	37
  3373  001B00  A4D8               	btfss	status,2,c
  3374  001B02  EF85  F00D         	goto	u1391
  3375  001B06  EF87  F00D         	goto	u1390
  3376  001B0A                     u1391:
  3377  001B0A  EFA0  F00D         	goto	l2769
  3378  001B0E                     u1390:
  3379  001B0E                     
  3380                           ; BSR set to: 5
  3381                           ;C:\Program Files\Microchip\xc8\v2.20\pic\sources\c99\common\doprnt.c: 1351:            
      +                           ++*fmt;
  3382  001B0E  0061  F510  F4D9   	movff	vfpfcnvrt@fmt,fsr2l
  3383  001B14  0061  F514  F4DA   	movff	vfpfcnvrt@fmt+1,fsr2h
  3384  001B1A  2ADE               	incf	postinc2,f,c
  3385  001B1C  0E00               	movlw	0
  3386  001B1E  22DD               	addwfc	postdec2,f,c
  3387  001B20                     
  3388                           ; BSR set to: 5
  3389                           ;C:\Program Files\Microchip\xc8\v2.20\pic\sources\c99\common\doprnt.c: 1352:            
      +                           fputc((int)'%', fp);
  3390  001B20  0E00               	movlw	0
  3391  001B22  6E04               	movwf	(fputc@c+1)^(0+1280),c
  3392  001B24  0E25               	movlw	37
  3393  001B26  6E03               	movwf	fputc@c^(0+1280),c
  3394  001B28  C542  F505         	movff	vfpfcnvrt@fp,fputc@fp
  3395  001B2C  C543  F506         	movff	vfpfcnvrt@fp+1,fputc@fp+1
  3396  001B30  EC99  F010         	call	_fputc	;wreg free
  3397  001B34                     l2765:
  3398                           
  3399                           ;C:\Program Files\Microchip\xc8\v2.20\pic\sources\c99\common\doprnt.c: 1353:            
      +                           return 1;
  3400  001B34  0E00               	movlw	0
  3401  001B36  6E43               	movwf	(?_vfpfcnvrt+1)^(0+1280),c
  3402  001B38  0E01               	movlw	1
  3403  001B3A  6E42               	movwf	?_vfpfcnvrt^(0+1280),c
  3404  001B3C  EFCF  F00D         	goto	l1611
  3405  001B40                     l2769:
  3406                           
  3407                           ; BSR set to: 5
  3408                           ;C:\Program Files\Microchip\xc8\v2.20\pic\sources\c99\common\doprnt.c: 1357:         ++*
      +                          fmt;
  3409  001B40  0061  F510  F4D9   	movff	vfpfcnvrt@fmt,fsr2l
  3410  001B46  0061  F514  F4DA   	movff	vfpfcnvrt@fmt+1,fsr2h
  3411  001B4C  2ADE               	incf	postinc2,f,c
  3412  001B4E  0E00               	movlw	0
  3413  001B50  22DD               	addwfc	postdec2,f,c
  3414  001B52                     
  3415                           ; BSR set to: 5
  3416                           ;C:\Program Files\Microchip\xc8\v2.20\pic\sources\c99\common\doprnt.c: 1358:         ret
      +                          urn 0;
  3417  001B52  0E00               	movlw	0
  3418  001B54  6E43               	movwf	(?_vfpfcnvrt+1)^(0+1280),c
  3419  001B56  0E00               	movlw	0
  3420  001B58  6E42               	movwf	?_vfpfcnvrt^(0+1280),c
  3421  001B5A  EFCF  F00D         	goto	l1611
  3422  001B5E                     l2775:
  3423                           
  3424                           ;C:\Program Files\Microchip\xc8\v2.20\pic\sources\c99\common\doprnt.c: 1362:     fputc((
      +                          int)(*fmt)[0], fp);
  3425  001B5E  0061  F510  F4D9   	movff	vfpfcnvrt@fmt,fsr2l
  3426  001B64  0061  F514  F4DA   	movff	vfpfcnvrt@fmt+1,fsr2h
  3427  001B6A  C4DE F4F6          	movff	postinc2,tblptrl
  3428  001B6E  C4DD F4F7          	movff	postdec2,tblptrh
  3429  001B72                     	if	1	;Program memory is < 0x10000, tblptru is always zero
  3430  001B72  6AF8               	clrf	tblptru,c
  3431  001B74                     	endif
  3432  001B74                     	if	0	;tblptru may be non-zero
  3433  001B74                     	endif
  3434  001B74  0008               	tblrd		*
  3435  001B76  50F5               	movf	tablat,w,c
  3436  001B78  6E03               	movwf	fputc@c^(0+1280),c
  3437  001B7A  6A04               	clrf	(fputc@c+1)^(0+1280),c
  3438  001B7C  C542  F505         	movff	vfpfcnvrt@fp,fputc@fp
  3439  001B80  C543  F506         	movff	vfpfcnvrt@fp+1,fputc@fp+1
  3440  001B84  EC99  F010         	call	_fputc	;wreg free
  3441  001B88                     
  3442                           ;C:\Program Files\Microchip\xc8\v2.20\pic\sources\c99\common\doprnt.c: 1363:     ++*fmt;
  3443  001B88  0061  F510  F4D9   	movff	vfpfcnvrt@fmt,fsr2l
  3444  001B8E  0061  F514  F4DA   	movff	vfpfcnvrt@fmt+1,fsr2h
  3445  001B94  2ADE               	incf	postinc2,f,c
  3446  001B96  0E00               	movlw	0
  3447  001B98  22DD               	addwfc	postdec2,f,c
  3448  001B9A  EF9A  F00D         	goto	l2765
  3449  001B9E                     l1611:
  3450  001B9E  0012               	return		;funcret
  3451  001BA0                     __end_of_vfpfcnvrt:
  3452                           	callstack 0
  3453                           
  3454 ;; *************** function _dtoa *****************
  3455 ;; Defined at:
  3456 ;;		line 274 in file "C:\Program Files\Microchip\xc8\v2.20\pic\sources\c99\common\doprnt.c"
  3457 ;; Parameters:    Size  Location     Type
  3458 ;;  fp              2   29[COMRAM] PTR struct _IO_FILE
  3459 ;;		 -> NULL(0), 
  3460 ;;  d               8   31[COMRAM] long long 
  3461 ;; Auto vars:     Size  Location     Type
  3462 ;;  n               8   55[COMRAM] long long 
  3463 ;;  i               2   63[COMRAM] int 
  3464 ;;  s               2   53[COMRAM] int 
  3465 ;;  w               2   51[COMRAM] int 
  3466 ;;  p               2   49[COMRAM] int 
  3467 ;; Return value:  Size  Location     Type
  3468 ;;                  2   29[COMRAM] int 
  3469 ;; Registers used:
  3470 ;;		wreg, fsr1l, fsr1h, fsr2l, fsr2h, status,2, status,0, cstack
  3471 ;; Tracked objects:
  3472 ;;		On entry : 0/0
  3473 ;;		On exit  : 0/0
  3474 ;;		Unchanged: 0/0
  3475 ;; Data sizes:     COMRAM   BANK5   BANK6   BANK7   BANK8   BANK9  BANK10  BANK11  BANK12  BANK13  BANK14  BANK15  BANK1
      +6  BANK17  BANK18  BANK19  BANK20  BANK21
  3476 ;;      Params:        10       0       0       0       0       0       0       0       0       0       0       0       
      +0       0       0       0       0       0
  3477 ;;      Locals:        18       0       0       0       0       0       0       0       0       0       0       0       
      +0       0       0       0       0       0
  3478 ;;      Temps:          8       0       0       0       0       0       0       0       0       0       0       0       
      +0       0       0       0       0       0
  3479 ;;      Totals:        36       0       0       0       0       0       0       0       0       0       0       0       
      +0       0       0       0       0       0
  3480 ;;Total ram usage:       36 bytes
  3481 ;; Hardware stack levels used:    1
  3482 ;; Hardware stack levels required when called:    8
  3483 ;; This function calls:
  3484 ;;		___aodiv
  3485 ;;		___aomod
  3486 ;;		_abs
  3487 ;;		_pad
  3488 ;; This function is called by:
  3489 ;;		_vfpfcnvrt
  3490 ;; This function uses a non-reentrant model
  3491 ;;
  3492                           
  3493                           	psect	text29
  3494  0016C6                     __ptext29:
  3495                           	callstack 0
  3496  0016C6                     _dtoa:
  3497                           	callstack 116
  3498  0016C6                     
  3499                           ;C:\Program Files\Microchip\xc8\v2.20\pic\sources\c99\common\doprnt.c: 274: static int d
      +                          toa(FILE *fp, long long d);C:\Program Files\Microchip\xc8\v2.20\pic\sources\c99\common\d
      +                          oprnt.c: 275: {;C:\Program Files\Microchip\xc8\v2.20\pic\sources\c99\common\doprnt.c: 27
      +                          6:     int i, p, s, w;;C:\Program Files\Microchip\xc8\v2.20\pic\sources\c99\common\doprn
      +                          t.c: 277:     long long n;;C:\Program Files\Microchip\xc8\v2.20\pic\sources\c99\common\d
      +                          oprnt.c: 280:     n = d;
  3500  0016C6  C520  F538         	movff	dtoa@d,dtoa@n
  3501  0016CA  C521  F539         	movff	dtoa@d+1,dtoa@n+1
  3502  0016CE  C522  F53A         	movff	dtoa@d+2,dtoa@n+2
  3503  0016D2  C523  F53B         	movff	dtoa@d+3,dtoa@n+3
  3504  0016D6  C524  F53C         	movff	dtoa@d+4,dtoa@n+4
  3505  0016DA  C525  F53D         	movff	dtoa@d+5,dtoa@n+5
  3506  0016DE  C526  F53E         	movff	dtoa@d+6,dtoa@n+6
  3507  0016E2  C527  F53F         	movff	dtoa@d+7,dtoa@n+7
  3508  0016E6                     
  3509                           ;C:\Program Files\Microchip\xc8\v2.20\pic\sources\c99\common\doprnt.c: 281:     s = n < 
      +                          0 ? 1 : 0;
  3510  0016E6  BE3F               	btfsc	(dtoa@n+7)^(0+1280),7,c
  3511  0016E8  EF78  F00B         	goto	u1211
  3512  0016EC  EF7B  F00B         	goto	u1210
  3513  0016F0                     u1211:
  3514  0016F0  0E01               	movlw	1
  3515  0016F2  EF7C  F00B         	goto	u1220
  3516  0016F6                     u1210:
  3517  0016F6  0E00               	movlw	0
  3518  0016F8                     u1220:
  3519  0016F8  6E36               	movwf	dtoa@s^(0+1280),c
  3520  0016FA  6A37               	clrf	(dtoa@s+1)^(0+1280),c
  3521                           
  3522                           ;C:\Program Files\Microchip\xc8\v2.20\pic\sources\c99\common\doprnt.c: 282:     if (s) {
  3523  0016FC  5036               	movf	dtoa@s^(0+1280),w,c
  3524  0016FE  1037               	iorwf	(dtoa@s+1)^(0+1280),w,c
  3525  001700  B4D8               	btfsc	status,2,c
  3526  001702  EF85  F00B         	goto	u1231
  3527  001706  EF87  F00B         	goto	u1230
  3528  00170A                     u1231:
  3529  00170A  EF97  F00B         	goto	l2685
  3530  00170E                     u1230:
  3531  00170E                     
  3532                           ;C:\Program Files\Microchip\xc8\v2.20\pic\sources\c99\common\doprnt.c: 283:         n = 
      +                          -n;
  3533  00170E  1E3F               	comf	(dtoa@n+7)^(0+1280),f,c
  3534  001710  1E3E               	comf	(dtoa@n+6)^(0+1280),f,c
  3535  001712  1E3D               	comf	(dtoa@n+5)^(0+1280),f,c
  3536  001714  1E3C               	comf	(dtoa@n+4)^(0+1280),f,c
  3537  001716  1E3B               	comf	(dtoa@n+3)^(0+1280),f,c
  3538  001718  1E3A               	comf	(dtoa@n+2)^(0+1280),f,c
  3539  00171A  1E39               	comf	(dtoa@n+1)^(0+1280),f,c
  3540  00171C  6C38               	negf	dtoa@n^(0+1280),c
  3541  00171E  0E00               	movlw	0
  3542  001720  2239               	addwfc	(dtoa@n+1)^(0+1280),f,c
  3543  001722  223A               	addwfc	(dtoa@n+2)^(0+1280),f,c
  3544  001724  223B               	addwfc	(dtoa@n+3)^(0+1280),f,c
  3545  001726  223C               	addwfc	(dtoa@n+4)^(0+1280),f,c
  3546  001728  223D               	addwfc	(dtoa@n+5)^(0+1280),f,c
  3547  00172A  223E               	addwfc	(dtoa@n+6)^(0+1280),f,c
  3548  00172C  223F               	addwfc	(dtoa@n+7)^(0+1280),f,c
  3549  00172E                     l2685:
  3550                           
  3551                           ;C:\Program Files\Microchip\xc8\v2.20\pic\sources\c99\common\doprnt.c: 287:     if (!(pr
      +                          ec < 0)) {
  3552  00172E  0105               	movlb	5	; () banked
  3553  001730  BF68               	btfsc	(_prec+1)& (0+255),7,b
  3554  001732  EF9D  F00B         	goto	u1241
  3555  001736  EF9F  F00B         	goto	u1240
  3556  00173A                     u1241:
  3557  00173A  EFA0  F00B         	goto	l2689
  3558  00173E                     u1240:
  3559  00173E                     
  3560                           ; BSR set to: 5
  3561                           ;C:\Program Files\Microchip\xc8\v2.20\pic\sources\c99\common\doprnt.c: 288:         flag
      +                          s &= ~(1 << 1);
  3562  00173E  9369               	bcf	_flags& (0+255),1,b
  3563  001740                     l2689:
  3564                           
  3565                           ; BSR set to: 5
  3566                           ;C:\Program Files\Microchip\xc8\v2.20\pic\sources\c99\common\doprnt.c: 290:     p = (0 <
      +                           prec) ? prec : 1;
  3567  001740  BF68               	btfsc	(_prec+1)& (0+255),7,b
  3568  001742  EFAD  F00B         	goto	u1250
  3569  001746  5168               	movf	(_prec+1)& (0+255),w,b
  3570  001748  E106               	bnz	u1251
  3571  00174A  0567               	decf	_prec& (0+255),w,b
  3572  00174C  B0D8               	btfsc	status,0,c
  3573  00174E  EFAB  F00B         	goto	u1251
  3574  001752  EFAD  F00B         	goto	u1250
  3575  001756                     u1251:
  3576  001756  EFB3  F00B         	goto	l1584
  3577  00175A                     u1250:
  3578  00175A                     
  3579                           ; BSR set to: 5
  3580  00175A  0E00               	movlw	0
  3581  00175C  6E33               	movwf	(dtoa@p+1)^(0+1280),c
  3582  00175E  0E01               	movlw	1
  3583  001760  6E32               	movwf	dtoa@p^(0+1280),c
  3584  001762  EFB7  F00B         	goto	l1586
  3585  001766                     l1584:
  3586                           
  3587                           ; BSR set to: 5
  3588  001766  C567  F532         	movff	_prec,dtoa@p
  3589  00176A  C568  F533         	movff	_prec+1,dtoa@p+1
  3590  00176E                     l1586:
  3591                           
  3592                           ; BSR set to: 5
  3593                           ;C:\Program Files\Microchip\xc8\v2.20\pic\sources\c99\common\doprnt.c: 291:     w = widt
      +                          h;
  3594  00176E  C565  F534         	movff	_width,dtoa@w
  3595  001772  C566  F535         	movff	_width+1,dtoa@w+1
  3596  001776                     
  3597                           ; BSR set to: 5
  3598                           ;C:\Program Files\Microchip\xc8\v2.20\pic\sources\c99\common\doprnt.c: 292:     if (s ||
      +                           (flags & (1 << 2))) {
  3599  001776  5036               	movf	dtoa@s^(0+1280),w,c
  3600  001778  1037               	iorwf	(dtoa@s+1)^(0+1280),w,c
  3601  00177A  A4D8               	btfss	status,2,c
  3602  00177C  EFC2  F00B         	goto	u1261
  3603  001780  EFC4  F00B         	goto	u1260
  3604  001784                     u1261:
  3605  001784  EFCB  F00B         	goto	l2697
  3606  001788                     u1260:
  3607  001788                     
  3608                           ; BSR set to: 5
  3609  001788  A569               	btfss	_flags& (0+255),2,b
  3610  00178A  EFC9  F00B         	goto	u1271
  3611  00178E  EFCB  F00B         	goto	u1270
  3612  001792                     u1271:
  3613  001792  EFCE  F00B         	goto	l2699
  3614  001796                     u1270:
  3615  001796                     l2697:
  3616                           
  3617                           ; BSR set to: 5
  3618                           ;C:\Program Files\Microchip\xc8\v2.20\pic\sources\c99\common\doprnt.c: 293:         --w;
  3619  001796  0634               	decf	dtoa@w^(0+1280),f,c
  3620  001798  A0D8               	btfss	status,0,c
  3621  00179A  0635               	decf	(dtoa@w+1)^(0+1280),f,c
  3622  00179C                     l2699:
  3623                           
  3624                           ; BSR set to: 5
  3625                           ;C:\Program Files\Microchip\xc8\v2.20\pic\sources\c99\common\doprnt.c: 297:     i = size
      +                          of(dbuf) - 1;
  3626  00179C  0E00               	movlw	0
  3627  00179E  6E41               	movwf	(dtoa@i+1)^(0+1280),c
  3628  0017A0  0E1F               	movlw	31
  3629  0017A2  6E40               	movwf	dtoa@i^(0+1280),c
  3630  0017A4                     
  3631                           ; BSR set to: 5
  3632                           ;C:\Program Files\Microchip\xc8\v2.20\pic\sources\c99\common\doprnt.c: 298:     dbuf[i] 
      +                          = '\0';
  3633  0017A4  0E00               	movlw	0
  3634  0017A6  6F93               	movwf	(_dbuf+31)& (0+255),b
  3635                           
  3636                           ;C:\Program Files\Microchip\xc8\v2.20\pic\sources\c99\common\doprnt.c: 299:     while (!
      +                          (i < 1) && (n || (0 < p) || ((0 < w) && (flags & (1 << 1))))) {
  3637  0017A8  EF52  F00C         	goto	l2713
  3638  0017AC                     l2703:
  3639                           
  3640                           ;C:\Program Files\Microchip\xc8\v2.20\pic\sources\c99\common\doprnt.c: 300:         --i;
  3641  0017AC  0640               	decf	dtoa@i^(0+1280),f,c
  3642  0017AE  A0D8               	btfss	status,0,c
  3643  0017B0  0641               	decf	(dtoa@i+1)^(0+1280),f,c
  3644  0017B2                     
  3645                           ;C:\Program Files\Microchip\xc8\v2.20\pic\sources\c99\common\doprnt.c: 301:         dbuf
      +                          [i] = '0' + abs(n % 10);
  3646  0017B2  0E74               	movlw	low _dbuf
  3647  0017B4  2440               	addwf	dtoa@i^(0+1280),w,c
  3648  0017B6  6ED9               	movwf	fsr2l,c
  3649  0017B8  0E05               	movlw	high _dbuf
  3650  0017BA  2041               	addwfc	(dtoa@i+1)^(0+1280),w,c
  3651  0017BC  6EDA               	movwf	fsr2h,c
  3652  0017BE  C538  F501         	movff	dtoa@n,___aomod@dividend
  3653  0017C2  C539  F502         	movff	dtoa@n+1,___aomod@dividend+1
  3654  0017C6  C53A  F503         	movff	dtoa@n+2,___aomod@dividend+2
  3655  0017CA  C53B  F504         	movff	dtoa@n+3,___aomod@dividend+3
  3656  0017CE  C53C  F505         	movff	dtoa@n+4,___aomod@dividend+4
  3657  0017D2  C53D  F506         	movff	dtoa@n+5,___aomod@dividend+5
  3658  0017D6  C53E  F507         	movff	dtoa@n+6,___aomod@dividend+6
  3659  0017DA  C53F  F508         	movff	dtoa@n+7,___aomod@dividend+7
  3660  0017DE  0E0A               	movlw	10
  3661  0017E0  6E09               	movwf	___aomod@divisor^(0+1280),c
  3662  0017E2  0E00               	movlw	0
  3663  0017E4  6E0A               	movwf	(___aomod@divisor+1)^(0+1280),c
  3664  0017E6  0E00               	movlw	0
  3665  0017E8  6E0B               	movwf	(___aomod@divisor+2)^(0+1280),c
  3666  0017EA  0E00               	movlw	0
  3667  0017EC  6E0C               	movwf	(___aomod@divisor+3)^(0+1280),c
  3668  0017EE  0E00               	movlw	0
  3669  0017F0  6E0D               	movwf	(___aomod@divisor+4)^(0+1280),c
  3670  0017F2  0E00               	movlw	0
  3671  0017F4  6E0E               	movwf	(___aomod@divisor+5)^(0+1280),c
  3672  0017F6  0E00               	movlw	0
  3673  0017F8  6E0F               	movwf	(___aomod@divisor+6)^(0+1280),c
  3674  0017FA  0E00               	movlw	0
  3675  0017FC  6E10               	movwf	(___aomod@divisor+7)^(0+1280),c
  3676  0017FE  EC94  F00E         	call	___aomod	;wreg free
  3677  001802  C501  F528         	movff	?___aomod,??_dtoa
  3678  001806  C502  F529         	movff	?___aomod+1,??_dtoa+1
  3679  00180A  C503  F52A         	movff	?___aomod+2,??_dtoa+2
  3680  00180E  C504  F52B         	movff	?___aomod+3,??_dtoa+3
  3681  001812  C505  F52C         	movff	?___aomod+4,??_dtoa+4
  3682  001816  C506  F52D         	movff	?___aomod+5,??_dtoa+5
  3683  00181A  C507  F52E         	movff	?___aomod+6,??_dtoa+6
  3684  00181E  C508  F52F         	movff	?___aomod+7,??_dtoa+7
  3685  001822  C528  F513         	movff	??_dtoa,abs@a
  3686  001826  C52A  F514         	movff	??_dtoa+2,abs@a+1
  3687  00182A  ECA2  F012         	call	_abs	;wreg free
  3688  00182E  5013               	movf	?_abs^(0+1280),w,c
  3689  001830  0F30               	addlw	48
  3690  001832  6EDF               	movwf	indf2,c
  3691  001834                     
  3692                           ;C:\Program Files\Microchip\xc8\v2.20\pic\sources\c99\common\doprnt.c: 302:         --p;
  3693  001834  0632               	decf	dtoa@p^(0+1280),f,c
  3694  001836  A0D8               	btfss	status,0,c
  3695  001838  0633               	decf	(dtoa@p+1)^(0+1280),f,c
  3696  00183A                     
  3697                           ;C:\Program Files\Microchip\xc8\v2.20\pic\sources\c99\common\doprnt.c: 303:         --w;
  3698  00183A  0634               	decf	dtoa@w^(0+1280),f,c
  3699  00183C  A0D8               	btfss	status,0,c
  3700  00183E  0635               	decf	(dtoa@w+1)^(0+1280),f,c
  3701  001840                     
  3702                           ;C:\Program Files\Microchip\xc8\v2.20\pic\sources\c99\common\doprnt.c: 304:         n = 
      +                          n / 10;
  3703  001840  C538  F501         	movff	dtoa@n,___aodiv@dividend
  3704  001844  C539  F502         	movff	dtoa@n+1,___aodiv@dividend+1
  3705  001848  C53A  F503         	movff	dtoa@n+2,___aodiv@dividend+2
  3706  00184C  C53B  F504         	movff	dtoa@n+3,___aodiv@dividend+3
  3707  001850  C53C  F505         	movff	dtoa@n+4,___aodiv@dividend+4
  3708  001854  C53D  F506         	movff	dtoa@n+5,___aodiv@dividend+5
  3709  001858  C53E  F507         	movff	dtoa@n+6,___aodiv@dividend+6
  3710  00185C  C53F  F508         	movff	dtoa@n+7,___aodiv@dividend+7
  3711  001860  0E0A               	movlw	10
  3712  001862  6E09               	movwf	___aodiv@divisor^(0+1280),c
  3713  001864  0E00               	movlw	0
  3714  001866  6E0A               	movwf	(___aodiv@divisor+1)^(0+1280),c
  3715  001868  0E00               	movlw	0
  3716  00186A  6E0B               	movwf	(___aodiv@divisor+2)^(0+1280),c
  3717  00186C  0E00               	movlw	0
  3718  00186E  6E0C               	movwf	(___aodiv@divisor+3)^(0+1280),c
  3719  001870  0E00               	movlw	0
  3720  001872  6E0D               	movwf	(___aodiv@divisor+4)^(0+1280),c
  3721  001874  0E00               	movlw	0
  3722  001876  6E0E               	movwf	(___aodiv@divisor+5)^(0+1280),c
  3723  001878  0E00               	movlw	0
  3724  00187A  6E0F               	movwf	(___aodiv@divisor+6)^(0+1280),c
  3725  00187C  0E00               	movlw	0
  3726  00187E  6E10               	movwf	(___aodiv@divisor+7)^(0+1280),c
  3727  001880  ECD0  F00D         	call	___aodiv	;wreg free
  3728  001884  C501  F538         	movff	?___aodiv,dtoa@n
  3729  001888  C502  F539         	movff	?___aodiv+1,dtoa@n+1
  3730  00188C  C503  F53A         	movff	?___aodiv+2,dtoa@n+2
  3731  001890  C504  F53B         	movff	?___aodiv+3,dtoa@n+3
  3732  001894  C505  F53C         	movff	?___aodiv+4,dtoa@n+4
  3733  001898  C506  F53D         	movff	?___aodiv+5,dtoa@n+5
  3734  00189C  C507  F53E         	movff	?___aodiv+6,dtoa@n+6
  3735  0018A0  C508  F53F         	movff	?___aodiv+7,dtoa@n+7
  3736  0018A4                     l2713:
  3737                           
  3738                           ;C:\Program Files\Microchip\xc8\v2.20\pic\sources\c99\common\doprnt.c: 299:     while (!
      +                          (i < 1) && (n || (0 < p) || ((0 < w) && (flags & (1 << 1))))) {
  3739  0018A4  BE41               	btfsc	(dtoa@i+1)^(0+1280),7,c
  3740  0018A6  EF5D  F00C         	goto	u1281
  3741  0018AA  5041               	movf	(dtoa@i+1)^(0+1280),w,c
  3742  0018AC  E108               	bnz	u1280
  3743  0018AE  0440               	decf	dtoa@i^(0+1280),w,c
  3744  0018B0  A0D8               	btfss	status,0,c
  3745  0018B2  EF5D  F00C         	goto	u1281
  3746  0018B6  EF5F  F00C         	goto	u1280
  3747  0018BA                     u1281:
  3748  0018BA  EF90  F00C         	goto	l2723
  3749  0018BE                     u1280:
  3750  0018BE  5038               	movf	dtoa@n^(0+1280),w,c
  3751  0018C0  1039               	iorwf	(dtoa@n+1)^(0+1280),w,c
  3752  0018C2  103A               	iorwf	(dtoa@n+2)^(0+1280),w,c
  3753  0018C4  103B               	iorwf	(dtoa@n+3)^(0+1280),w,c
  3754  0018C6  103C               	iorwf	(dtoa@n+4)^(0+1280),w,c
  3755  0018C8  103D               	iorwf	(dtoa@n+5)^(0+1280),w,c
  3756  0018CA  103E               	iorwf	(dtoa@n+6)^(0+1280),w,c
  3757  0018CC  103F               	iorwf	(dtoa@n+7)^(0+1280),w,c
  3758  0018CE  A4D8               	btfss	status,2,c
  3759  0018D0  EF6C  F00C         	goto	u1291
  3760  0018D4  EF6E  F00C         	goto	u1290
  3761  0018D8                     u1291:
  3762  0018D8  EFD6  F00B         	goto	l2703
  3763  0018DC                     u1290:
  3764  0018DC  BE33               	btfsc	(dtoa@p+1)^(0+1280),7,c
  3765  0018DE  EF7B  F00C         	goto	u1300
  3766  0018E2  5033               	movf	(dtoa@p+1)^(0+1280),w,c
  3767  0018E4  E106               	bnz	u1301
  3768  0018E6  0432               	decf	dtoa@p^(0+1280),w,c
  3769  0018E8  B0D8               	btfsc	status,0,c
  3770  0018EA  EF79  F00C         	goto	u1301
  3771  0018EE  EF7B  F00C         	goto	u1300
  3772  0018F2                     u1301:
  3773  0018F2  EFD6  F00B         	goto	l2703
  3774  0018F6                     u1300:
  3775  0018F6  BE35               	btfsc	(dtoa@w+1)^(0+1280),7,c
  3776  0018F8  EF86  F00C         	goto	u1311
  3777  0018FC  5035               	movf	(dtoa@w+1)^(0+1280),w,c
  3778  0018FE  E108               	bnz	u1310
  3779  001900  0434               	decf	dtoa@w^(0+1280),w,c
  3780  001902  A0D8               	btfss	status,0,c
  3781  001904  EF86  F00C         	goto	u1311
  3782  001908  EF88  F00C         	goto	u1310
  3783  00190C                     u1311:
  3784  00190C  EF90  F00C         	goto	l2723
  3785  001910                     u1310:
  3786  001910  0105               	movlb	5	; () banked
  3787  001912  B369               	btfsc	_flags& (0+255),1,b
  3788  001914  EF8E  F00C         	goto	u1321
  3789  001918  EF90  F00C         	goto	u1320
  3790  00191C                     u1321:
  3791  00191C  EFD6  F00B         	goto	l2703
  3792  001920                     u1320:
  3793  001920                     l2723:
  3794                           
  3795                           ;C:\Program Files\Microchip\xc8\v2.20\pic\sources\c99\common\doprnt.c: 308:     if (s ||
      +                           (flags & (1 << 2))) {
  3796  001920  5036               	movf	dtoa@s^(0+1280),w,c
  3797  001922  1037               	iorwf	(dtoa@s+1)^(0+1280),w,c
  3798  001924  A4D8               	btfss	status,2,c
  3799  001926  EF97  F00C         	goto	u1331
  3800  00192A  EF99  F00C         	goto	u1330
  3801  00192E                     u1331:
  3802  00192E  EFA1  F00C         	goto	l2727
  3803  001932                     u1330:
  3804  001932  0105               	movlb	5	; () banked
  3805  001934  A569               	btfss	_flags& (0+255),2,b
  3806  001936  EF9F  F00C         	goto	u1341
  3807  00193A  EFA1  F00C         	goto	u1340
  3808  00193E                     u1341:
  3809  00193E  EFC0  F00C         	goto	l2737
  3810  001942                     u1340:
  3811  001942                     l2727:
  3812                           
  3813                           ;C:\Program Files\Microchip\xc8\v2.20\pic\sources\c99\common\doprnt.c: 309:         --i;
  3814  001942  0640               	decf	dtoa@i^(0+1280),f,c
  3815  001944  A0D8               	btfss	status,0,c
  3816  001946  0641               	decf	(dtoa@i+1)^(0+1280),f,c
  3817  001948                     
  3818                           ;C:\Program Files\Microchip\xc8\v2.20\pic\sources\c99\common\doprnt.c: 310:         dbuf
      +                          [i] = s ? '-' : '+';
  3819  001948  5036               	movf	dtoa@s^(0+1280),w,c
  3820  00194A  1037               	iorwf	(dtoa@s+1)^(0+1280),w,c
  3821  00194C  A4D8               	btfss	status,2,c
  3822  00194E  EFAB  F00C         	goto	u1351
  3823  001952  EFAD  F00C         	goto	u1350
  3824  001956                     u1351:
  3825  001956  EFB3  F00C         	goto	l2733
  3826  00195A                     u1350:
  3827  00195A  0E00               	movlw	0
  3828  00195C  6E31               	movwf	(_dtoa$2363+1)^(0+1280),c
  3829  00195E  0E2B               	movlw	43
  3830  001960  6E30               	movwf	_dtoa$2363^(0+1280),c
  3831  001962  EFB7  F00C         	goto	l2735
  3832  001966                     l2733:
  3833  001966  0E00               	movlw	0
  3834  001968  6E31               	movwf	(_dtoa$2363+1)^(0+1280),c
  3835  00196A  0E2D               	movlw	45
  3836  00196C  6E30               	movwf	_dtoa$2363^(0+1280),c
  3837  00196E                     l2735:
  3838  00196E  0E74               	movlw	low _dbuf
  3839  001970  2440               	addwf	dtoa@i^(0+1280),w,c
  3840  001972  6ED9               	movwf	fsr2l,c
  3841  001974  0E05               	movlw	high _dbuf
  3842  001976  2041               	addwfc	(dtoa@i+1)^(0+1280),w,c
  3843  001978  6EDA               	movwf	fsr2h,c
  3844  00197A  0061  F4C0  F4DF   	movff	_dtoa$2363,indf2
  3845  001980                     l2737:
  3846                           
  3847                           ;C:\Program Files\Microchip\xc8\v2.20\pic\sources\c99\common\doprnt.c: 314:     return p
      +                          ad(fp, &dbuf[i], w);
  3848  001980  C51E  F513         	movff	dtoa@fp,pad@fp
  3849  001984  C51F  F514         	movff	dtoa@fp+1,pad@fp+1
  3850  001988  0E74               	movlw	low _dbuf
  3851  00198A  2440               	addwf	dtoa@i^(0+1280),w,c
  3852  00198C  6E15               	movwf	pad@buf^(0+1280),c
  3853  00198E  0E05               	movlw	high _dbuf
  3854  001990  2041               	addwfc	(dtoa@i+1)^(0+1280),w,c
  3855  001992  6E16               	movwf	(pad@buf+1)^(0+1280),c
  3856  001994  C534  F517         	movff	dtoa@w,pad@p
  3857  001998  C535  F518         	movff	dtoa@w+1,pad@p+1
  3858  00199C  EC36  F010         	call	_pad	;wreg free
  3859  0019A0  C513  F51E         	movff	?_pad,?_dtoa
  3860  0019A4  C514  F51F         	movff	?_pad+1,?_dtoa+1
  3861  0019A8  0012               	return		;funcret
  3862  0019AA                     __end_of_dtoa:
  3863                           	callstack 0
  3864                           
  3865 ;; *************** function _pad *****************
  3866 ;; Defined at:
  3867 ;;		line 72 in file "C:\Program Files\Microchip\xc8\v2.20\pic\sources\c99\common\doprnt.c"
  3868 ;; Parameters:    Size  Location     Type
  3869 ;;  fp              2   18[COMRAM] PTR struct _IO_FILE
  3870 ;;		 -> NULL(0), 
  3871 ;;  buf             2   20[COMRAM] PTR unsigned char 
  3872 ;;		 -> dbuf(32), 
  3873 ;;  p               2   22[COMRAM] int 
  3874 ;; Auto vars:     Size  Location     Type
  3875 ;;  w               2   27[COMRAM] int 
  3876 ;;  i               2   25[COMRAM] int 
  3877 ;; Return value:  Size  Location     Type
  3878 ;;                  2   18[COMRAM] int 
  3879 ;; Registers used:
  3880 ;;		wreg, fsr1l, fsr1h, fsr2l, fsr2h, status,2, status,0, cstack
  3881 ;; Tracked objects:
  3882 ;;		On entry : 0/0
  3883 ;;		On exit  : 0/0
  3884 ;;		Unchanged: 0/0
  3885 ;; Data sizes:     COMRAM   BANK5   BANK6   BANK7   BANK8   BANK9  BANK10  BANK11  BANK12  BANK13  BANK14  BANK15  BANK1
      +6  BANK17  BANK18  BANK19  BANK20  BANK21
  3886 ;;      Params:         6       0       0       0       0       0       0       0       0       0       0       0       
      +0       0       0       0       0       0
  3887 ;;      Locals:         4       0       0       0       0       0       0       0       0       0       0       0       
      +0       0       0       0       0       0
  3888 ;;      Temps:          1       0       0       0       0       0       0       0       0       0       0       0       
      +0       0       0       0       0       0
  3889 ;;      Totals:        11       0       0       0       0       0       0       0       0       0       0       0       
      +0       0       0       0       0       0
  3890 ;;Total ram usage:       11 bytes
  3891 ;; Hardware stack levels used:    1
  3892 ;; Hardware stack levels required when called:    7
  3893 ;; This function calls:
  3894 ;;		_fputc
  3895 ;;		_fputs
  3896 ;;		_strlen
  3897 ;; This function is called by:
  3898 ;;		_dtoa
  3899 ;; This function uses a non-reentrant model
  3900 ;;
  3901                           
  3902                           	psect	text30
  3903  00206C                     __ptext30:
  3904                           	callstack 0
  3905  00206C                     _pad:
  3906                           	callstack 116
  3907  00206C                     
  3908                           ;C:\Program Files\Microchip\xc8\v2.20\pic\sources\c99\common\doprnt.c: 72: static int pa
      +                          d(FILE *fp, char *buf, int p);C:\Program Files\Microchip\xc8\v2.20\pic\sources\c99\commo
      +                          n\doprnt.c: 73: {;C:\Program Files\Microchip\xc8\v2.20\pic\sources\c99\common\doprnt.c: 
      +                          74:     int i, w;;C:\Program Files\Microchip\xc8\v2.20\pic\sources\c99\common\doprnt.c: 
      +                          77:     if (flags & (1 << 0)) {
  3909  00206C  0105               	movlb	5	; () banked
  3910  00206E  A169               	btfss	_flags& (0+255),0,b
  3911  002070  EF3C  F010         	goto	u1161
  3912  002074  EF3E  F010         	goto	u1160
  3913  002078                     u1161:
  3914  002078  EF48  F010         	goto	l2657
  3915  00207C                     u1160:
  3916  00207C                     
  3917                           ; BSR set to: 5
  3918                           ;C:\Program Files\Microchip\xc8\v2.20\pic\sources\c99\common\doprnt.c: 78:         fputs
      +                          ((const char *)buf, fp);
  3919  00207C  C515  F50C         	movff	pad@buf,fputs@s
  3920  002080  C516  F50D         	movff	pad@buf+1,fputs@s+1
  3921  002084  C513  F50E         	movff	pad@fp,fputs@fp
  3922  002088  C514  F50F         	movff	pad@fp+1,fputs@fp+1
  3923  00208C  EC80  F012         	call	_fputs	;wreg free
  3924  002090                     l2657:
  3925                           
  3926                           ;C:\Program Files\Microchip\xc8\v2.20\pic\sources\c99\common\doprnt.c: 82:     w = (p < 
      +                          0) ? 0 : p;
  3927  002090  BE18               	btfsc	(pad@p+1)^(0+1280),7,c
  3928  002092  EF4D  F010         	goto	u1171
  3929  002096  EF4F  F010         	goto	u1170
  3930  00209A                     u1171:
  3931  00209A  EF55  F010         	goto	l2661
  3932  00209E                     u1170:
  3933  00209E  C517  F51C         	movff	pad@p,pad@w
  3934  0020A2  C518  F51D         	movff	pad@p+1,pad@w+1
  3935  0020A6  EF59  F010         	goto	l1573
  3936  0020AA                     l2661:
  3937  0020AA  0E00               	movlw	0
  3938  0020AC  6E1D               	movwf	(pad@w+1)^(0+1280),c
  3939  0020AE  0E00               	movlw	0
  3940  0020B0  6E1C               	movwf	pad@w^(0+1280),c
  3941  0020B2                     l1573:
  3942                           
  3943                           ;C:\Program Files\Microchip\xc8\v2.20\pic\sources\c99\common\doprnt.c: 83:     i = 0;
  3944  0020B2  0E00               	movlw	0
  3945  0020B4  6E1B               	movwf	(pad@i+1)^(0+1280),c
  3946  0020B6  0E00               	movlw	0
  3947  0020B8  6E1A               	movwf	pad@i^(0+1280),c
  3948                           
  3949                           ;C:\Program Files\Microchip\xc8\v2.20\pic\sources\c99\common\doprnt.c: 84:     while (i 
      +                          < w) {
  3950  0020BA  EF6B  F010         	goto	l2667
  3951  0020BE                     l2663:
  3952                           
  3953                           ;C:\Program Files\Microchip\xc8\v2.20\pic\sources\c99\common\doprnt.c: 85:         fputc
      +                          (' ', fp);
  3954  0020BE  0E00               	movlw	0
  3955  0020C0  6E04               	movwf	(fputc@c+1)^(0+1280),c
  3956  0020C2  0E20               	movlw	32
  3957  0020C4  6E03               	movwf	fputc@c^(0+1280),c
  3958  0020C6  C513  F505         	movff	pad@fp,fputc@fp
  3959  0020CA  C514  F506         	movff	pad@fp+1,fputc@fp+1
  3960  0020CE  EC99  F010         	call	_fputc	;wreg free
  3961  0020D2                     
  3962                           ;C:\Program Files\Microchip\xc8\v2.20\pic\sources\c99\common\doprnt.c: 86:         ++i;
  3963  0020D2  4A1A               	infsnz	pad@i^(0+1280),f,c
  3964  0020D4  2A1B               	incf	(pad@i+1)^(0+1280),f,c
  3965  0020D6                     l2667:
  3966                           
  3967                           ;C:\Program Files\Microchip\xc8\v2.20\pic\sources\c99\common\doprnt.c: 84:     while (i 
      +                          < w) {
  3968  0020D6  501C               	movf	pad@w^(0+1280),w,c
  3969  0020D8  5C1A               	subwf	pad@i^(0+1280),w,c
  3970  0020DA  501B               	movf	(pad@i+1)^(0+1280),w,c
  3971  0020DC  0A80               	xorlw	128
  3972  0020DE  6E19               	movwf	??_pad^(0+1280),c
  3973  0020E0  501D               	movf	(pad@w+1)^(0+1280),w,c
  3974  0020E2  0A80               	xorlw	128
  3975  0020E4  5819               	subwfb	??_pad^(0+1280),w,c
  3976  0020E6  A0D8               	btfss	status,0,c
  3977  0020E8  EF78  F010         	goto	u1181
  3978  0020EC  EF7A  F010         	goto	u1180
  3979  0020F0                     u1181:
  3980  0020F0  EF5F  F010         	goto	l2663
  3981  0020F4                     u1180:
  3982  0020F4                     
  3983                           ;C:\Program Files\Microchip\xc8\v2.20\pic\sources\c99\common\doprnt.c: 90:     if (!(fla
      +                          gs & (1 << 0))) {
  3984  0020F4  0105               	movlb	5	; () banked
  3985  0020F6  B169               	btfsc	_flags& (0+255),0,b
  3986  0020F8  EF80  F010         	goto	u1191
  3987  0020FC  EF82  F010         	goto	u1190
  3988  002100                     u1191:
  3989  002100  EF8C  F010         	goto	l2671
  3990  002104                     u1190:
  3991  002104                     
  3992                           ; BSR set to: 5
  3993                           ;C:\Program Files\Microchip\xc8\v2.20\pic\sources\c99\common\doprnt.c: 91:         fputs
      +                          ((const char *)buf, fp);
  3994  002104  C515  F50C         	movff	pad@buf,fputs@s
  3995  002108  C516  F50D         	movff	pad@buf+1,fputs@s+1
  3996  00210C  C513  F50E         	movff	pad@fp,fputs@fp
  3997  002110  C514  F50F         	movff	pad@fp+1,fputs@fp+1
  3998  002114  EC80  F012         	call	_fputs	;wreg free
  3999  002118                     l2671:
  4000                           
  4001                           ;C:\Program Files\Microchip\xc8\v2.20\pic\sources\c99\common\doprnt.c: 94:     return st
      +                          rlen(buf) + w;
  4002  002118  C515  F501         	movff	pad@buf,strlen@s
  4003  00211C  C516  F502         	movff	pad@buf+1,strlen@s+1
  4004  002120  ECDF  F012         	call	_strlen	;wreg free
  4005  002124  501C               	movf	pad@w^(0+1280),w,c
  4006  002126  2401               	addwf	?_strlen^(0+1280),w,c
  4007  002128  6E13               	movwf	?_pad^(0+1280),c
  4008  00212A  501D               	movf	(pad@w+1)^(0+1280),w,c
  4009  00212C  2002               	addwfc	(?_strlen+1)^(0+1280),w,c
  4010  00212E  6E14               	movwf	(?_pad+1)^(0+1280),c
  4011  002130  0012               	return		;funcret
  4012  002132                     __end_of_pad:
  4013                           	callstack 0
  4014                           
  4015 ;; *************** function _strlen *****************
  4016 ;; Defined at:
  4017 ;;		line 5 in file "C:\Program Files\Microchip\xc8\v2.20\pic\sources\c99\common\strlen.c"
  4018 ;; Parameters:    Size  Location     Type
  4019 ;;  s               2    0[COMRAM] PTR const unsigned char 
  4020 ;;		 -> dbuf(32), 
  4021 ;; Auto vars:     Size  Location     Type
  4022 ;;  a               2    2[COMRAM] PTR const unsigned char 
  4023 ;;		 -> dbuf(32), 
  4024 ;; Return value:  Size  Location     Type
  4025 ;;                  2    0[COMRAM] unsigned int 
  4026 ;; Registers used:
  4027 ;;		wreg, fsr2l, fsr2h, status,2, status,0
  4028 ;; Tracked objects:
  4029 ;;		On entry : 0/0
  4030 ;;		On exit  : 0/0
  4031 ;;		Unchanged: 0/0
  4032 ;; Data sizes:     COMRAM   BANK5   BANK6   BANK7   BANK8   BANK9  BANK10  BANK11  BANK12  BANK13  BANK14  BANK15  BANK1
      +6  BANK17  BANK18  BANK19  BANK20  BANK21
  4033 ;;      Params:         2       0       0       0       0       0       0       0       0       0       0       0       
      +0       0       0       0       0       0
  4034 ;;      Locals:         2       0       0       0       0       0       0       0       0       0       0       0       
      +0       0       0       0       0       0
  4035 ;;      Temps:          0       0       0       0       0       0       0       0       0       0       0       0       
      +0       0       0       0       0       0
  4036 ;;      Totals:         4       0       0       0       0       0       0       0       0       0       0       0       
      +0       0       0       0       0       0
  4037 ;;Total ram usage:        4 bytes
  4038 ;; Hardware stack levels used:    1
  4039 ;; Hardware stack levels required when called:    3
  4040 ;; This function calls:
  4041 ;;		Nothing
  4042 ;; This function is called by:
  4043 ;;		_pad
  4044 ;; This function uses a non-reentrant model
  4045 ;;
  4046                           
  4047                           	psect	text31
  4048  0025BE                     __ptext31:
  4049                           	callstack 0
  4050  0025BE                     _strlen:
  4051                           	callstack 119
  4052  0025BE  C501  F503         	movff	strlen@s,strlen@a
  4053  0025C2  C502  F504         	movff	strlen@s+1,strlen@a+1
  4054  0025C6  EFE7  F012         	goto	l2567
  4055  0025CA                     l2565:
  4056  0025CA  4A01               	infsnz	strlen@s^(0+1280),f,c
  4057  0025CC  2A02               	incf	(strlen@s+1)^(0+1280),f,c
  4058  0025CE                     l2567:
  4059  0025CE  0061  F404  F4D9   	movff	strlen@s,fsr2l
  4060  0025D4  0061  F408  F4DA   	movff	strlen@s+1,fsr2h
  4061  0025DA  50DF               	movf	indf2,w,c
  4062  0025DC  A4D8               	btfss	status,2,c
  4063  0025DE  EFF3  F012         	goto	u1021
  4064  0025E2  EFF5  F012         	goto	u1020
  4065  0025E6                     u1021:
  4066  0025E6  EFE5  F012         	goto	l2565
  4067  0025EA                     u1020:
  4068  0025EA  5003               	movf	strlen@a^(0+1280),w,c
  4069  0025EC  5C01               	subwf	strlen@s^(0+1280),w,c
  4070  0025EE  6E01               	movwf	?_strlen^(0+1280),c
  4071  0025F0  5004               	movf	(strlen@a+1)^(0+1280),w,c
  4072  0025F2  5802               	subwfb	(strlen@s+1)^(0+1280),w,c
  4073  0025F4  6E02               	movwf	(?_strlen+1)^(0+1280),c
  4074  0025F6  0012               	return		;funcret
  4075  0025F8                     __end_of_strlen:
  4076                           	callstack 0
  4077                           
  4078 ;; *************** function _fputs *****************
  4079 ;; Defined at:
  4080 ;;		line 8 in file "C:\Program Files\Microchip\xc8\v2.20\pic\sources\c99\common\nf_fputs.c"
  4081 ;; Parameters:    Size  Location     Type
  4082 ;;  s               2   11[COMRAM] PTR const unsigned char 
  4083 ;;		 -> dbuf(32), 
  4084 ;;  fp              2   13[COMRAM] PTR struct _IO_FILE
  4085 ;;		 -> NULL(0), 
  4086 ;; Auto vars:     Size  Location     Type
  4087 ;;  i               2   16[COMRAM] int 
  4088 ;;  c               1   15[COMRAM] unsigned char 
  4089 ;; Return value:  Size  Location     Type
  4090 ;;                  2   11[COMRAM] int 
  4091 ;; Registers used:
  4092 ;;		wreg, fsr1l, fsr1h, fsr2l, fsr2h, status,2, status,0, cstack
  4093 ;; Tracked objects:
  4094 ;;		On entry : 0/0
  4095 ;;		On exit  : 0/0
  4096 ;;		Unchanged: 0/0
  4097 ;; Data sizes:     COMRAM   BANK5   BANK6   BANK7   BANK8   BANK9  BANK10  BANK11  BANK12  BANK13  BANK14  BANK15  BANK1
      +6  BANK17  BANK18  BANK19  BANK20  BANK21
  4098 ;;      Params:         4       0       0       0       0       0       0       0       0       0       0       0       
      +0       0       0       0       0       0
  4099 ;;      Locals:         3       0       0       0       0       0       0       0       0       0       0       0       
      +0       0       0       0       0       0
  4100 ;;      Temps:          0       0       0       0       0       0       0       0       0       0       0       0       
      +0       0       0       0       0       0
  4101 ;;      Totals:         7       0       0       0       0       0       0       0       0       0       0       0       
      +0       0       0       0       0       0
  4102 ;;Total ram usage:        7 bytes
  4103 ;; Hardware stack levels used:    1
  4104 ;; Hardware stack levels required when called:    6
  4105 ;; This function calls:
  4106 ;;		_fputc
  4107 ;; This function is called by:
  4108 ;;		_pad
  4109 ;; This function uses a non-reentrant model
  4110 ;;
  4111                           
  4112                           	psect	text32
  4113  002500                     __ptext32:
  4114                           	callstack 0
  4115  002500                     _fputs:
  4116                           	callstack 116
  4117  002500  0E00               	movlw	0
  4118  002502  6E12               	movwf	(fputs@i+1)^(0+1280),c
  4119  002504  0E00               	movlw	0
  4120  002506  6E11               	movwf	fputs@i^(0+1280),c
  4121  002508  EF91  F012         	goto	l2561
  4122  00250C                     l2557:
  4123  00250C  C510  F503         	movff	fputs@c,fputc@c
  4124  002510  6A04               	clrf	(fputc@c+1)^(0+1280),c
  4125  002512  C50E  F505         	movff	fputs@fp,fputc@fp
  4126  002516  C50F  F506         	movff	fputs@fp+1,fputc@fp+1
  4127  00251A  EC99  F010         	call	_fputc	;wreg free
  4128  00251E  4A11               	infsnz	fputs@i^(0+1280),f,c
  4129  002520  2A12               	incf	(fputs@i+1)^(0+1280),f,c
  4130  002522                     l2561:
  4131  002522  5011               	movf	fputs@i^(0+1280),w,c
  4132  002524  240C               	addwf	fputs@s^(0+1280),w,c
  4133  002526  6ED9               	movwf	fsr2l,c
  4134  002528  5012               	movf	(fputs@i+1)^(0+1280),w,c
  4135  00252A  200D               	addwfc	(fputs@s+1)^(0+1280),w,c
  4136  00252C  6EDA               	movwf	fsr2h,c
  4137  00252E  50DF               	movf	indf2,w,c
  4138  002530  6E10               	movwf	fputs@c^(0+1280),c
  4139  002532  5010               	movf	fputs@c^(0+1280),w,c
  4140  002534  A4D8               	btfss	status,2,c
  4141  002536  EF9F  F012         	goto	u1011
  4142  00253A  EFA1  F012         	goto	u1010
  4143  00253E                     u1011:
  4144  00253E  EF86  F012         	goto	l2557
  4145  002542                     u1010:
  4146  002542  0012               	return		;funcret
  4147  002544                     __end_of_fputs:
  4148                           	callstack 0
  4149                           
  4150 ;; *************** function _fputc *****************
  4151 ;; Defined at:
  4152 ;;		line 8 in file "C:\Program Files\Microchip\xc8\v2.20\pic\sources\c99\common\nf_fputc.c"
  4153 ;; Parameters:    Size  Location     Type
  4154 ;;  c               2    2[COMRAM] int 
  4155 ;;  fp              2    4[COMRAM] PTR struct _IO_FILE
  4156 ;;		 -> NULL(0), 
  4157 ;; Auto vars:     Size  Location     Type
  4158 ;;		None
  4159 ;; Return value:  Size  Location     Type
  4160 ;;                  2    2[COMRAM] int 
  4161 ;; Registers used:
  4162 ;;		wreg, fsr1l, fsr1h, fsr2l, fsr2h, status,2, status,0, cstack
  4163 ;; Tracked objects:
  4164 ;;		On entry : 0/0
  4165 ;;		On exit  : 0/0
  4166 ;;		Unchanged: 0/0
  4167 ;; Data sizes:     COMRAM   BANK5   BANK6   BANK7   BANK8   BANK9  BANK10  BANK11  BANK12  BANK13  BANK14  BANK15  BANK1
      +6  BANK17  BANK18  BANK19  BANK20  BANK21
  4168 ;;      Params:         4       0       0       0       0       0       0       0       0       0       0       0       
      +0       0       0       0       0       0
  4169 ;;      Locals:         0       0       0       0       0       0       0       0       0       0       0       0       
      +0       0       0       0       0       0
  4170 ;;      Temps:          5       0       0       0       0       0       0       0       0       0       0       0       
      +0       0       0       0       0       0
  4171 ;;      Totals:         9       0       0       0       0       0       0       0       0       0       0       0       
      +0       0       0       0       0       0
  4172 ;;Total ram usage:        9 bytes
  4173 ;; Hardware stack levels used:    1
  4174 ;; Hardware stack levels required when called:    5
  4175 ;; This function calls:
  4176 ;;		_putch
  4177 ;; This function is called by:
  4178 ;;		_pad
  4179 ;;		_vfpfcnvrt
  4180 ;;		_fputs
  4181 ;; This function uses a non-reentrant model
  4182 ;;
  4183                           
  4184                           	psect	text33
  4185  002132                     __ptext33:
  4186                           	callstack 0
  4187  002132                     _fputc:
  4188                           	callstack 119
  4189  002132  5005               	movf	fputc@fp^(0+1280),w,c
  4190  002134  1006               	iorwf	(fputc@fp+1)^(0+1280),w,c
  4191  002136  B4D8               	btfsc	status,2,c
  4192  002138  EFA0  F010         	goto	u971
  4193  00213C  EFA2  F010         	goto	u970
  4194  002140                     u971:
  4195  002140  EFAB  F010         	goto	l2545
  4196  002144                     u970:
  4197  002144  5005               	movf	fputc@fp^(0+1280),w,c
  4198  002146  1006               	iorwf	(fputc@fp+1)^(0+1280),w,c
  4199  002148  A4D8               	btfss	status,2,c
  4200  00214A  EFA9  F010         	goto	u981
  4201  00214E  EFAB  F010         	goto	u980
  4202  002152                     u981:
  4203  002152  EFB0  F010         	goto	l2547
  4204  002156                     u980:
  4205  002156                     l2545:
  4206  002156  5003               	movf	fputc@c^(0+1280),w,c
  4207  002158  ECFB  F013         	call	_putch
  4208  00215C  EFE3  F010         	goto	l1637
  4209  002160                     l2547:
  4210  002160  EE20 F004          	lfsr	2,4
  4211  002164  5005               	movf	fputc@fp^(0+1280),w,c
  4212  002166  26D9               	addwf	fsr2l,f,c
  4213  002168  5006               	movf	(fputc@fp+1)^(0+1280),w,c
  4214  00216A  22DA               	addwfc	fsr2h,f,c
  4215  00216C  50DE               	movf	postinc2,w,c
  4216  00216E  10DE               	iorwf	postinc2,w,c
  4217  002170  B4D8               	btfsc	status,2,c
  4218  002172  EFBD  F010         	goto	u991
  4219  002176  EFBF  F010         	goto	u990
  4220  00217A                     u991:
  4221  00217A  EFDA  F010         	goto	l2551
  4222  00217E                     u990:
  4223  00217E  EE20 F004          	lfsr	2,4
  4224  002182  5005               	movf	fputc@fp^(0+1280),w,c
  4225  002184  26D9               	addwf	fsr2l,f,c
  4226  002186  5006               	movf	(fputc@fp+1)^(0+1280),w,c
  4227  002188  22DA               	addwfc	fsr2h,f,c
  4228  00218A  EE10 F002          	lfsr	1,2
  4229  00218E  5005               	movf	fputc@fp^(0+1280),w,c
  4230  002190  26E1               	addwf	fsr1l,f,c
  4231  002192  5006               	movf	(fputc@fp+1)^(0+1280),w,c
  4232  002194  22E2               	addwfc	fsr1h,f,c
  4233  002196  50DE               	movf	postinc2,w,c
  4234  002198  5CE6               	subwf	postinc1,w,c
  4235  00219A  50E6               	movf	postinc1,w,c
  4236  00219C  0A80               	xorlw	128
  4237  00219E  6E0B               	movwf	(??_fputc+4)^(0+1280),c
  4238  0021A0  50DE               	movf	postinc2,w,c
  4239  0021A2  0A80               	xorlw	128
  4240  0021A4  580B               	subwfb	(??_fputc+4)^(0+1280),w,c
  4241  0021A6  B0D8               	btfsc	status,0,c
  4242  0021A8  EFD8  F010         	goto	u1001
  4243  0021AC  EFDA  F010         	goto	u1000
  4244  0021B0                     u1001:
  4245  0021B0  EFE3  F010         	goto	l1637
  4246  0021B4                     u1000:
  4247  0021B4                     l2551:
  4248  0021B4  EE20 F002          	lfsr	2,2
  4249  0021B8  5005               	movf	fputc@fp^(0+1280),w,c
  4250  0021BA  26D9               	addwf	fsr2l,f,c
  4251  0021BC  5006               	movf	(fputc@fp+1)^(0+1280),w,c
  4252  0021BE  22DA               	addwfc	fsr2h,f,c
  4253  0021C0  2ADE               	incf	postinc2,f,c
  4254  0021C2  0E00               	movlw	0
  4255  0021C4  22DD               	addwfc	postdec2,f,c
  4256  0021C6                     l1637:
  4257  0021C6  0012               	return		;funcret
  4258  0021C8                     __end_of_fputc:
  4259                           	callstack 0
  4260                           
  4261 ;; *************** function _putch *****************
  4262 ;; Defined at:
  4263 ;;		line 184 in file "mcc_generated_files/uart1.c"
  4264 ;; Parameters:    Size  Location     Type
  4265 ;;  txData          1    wreg     unsigned char 
  4266 ;; Auto vars:     Size  Location     Type
  4267 ;;  txData          1    1[COMRAM] unsigned char 
  4268 ;; Return value:  Size  Location     Type
  4269 ;;                  1    wreg      void 
  4270 ;; Registers used:
  4271 ;;		wreg, status,2, cstack
  4272 ;; Tracked objects:
  4273 ;;		On entry : 0/0
  4274 ;;		On exit  : 0/0
  4275 ;;		Unchanged: 0/0
  4276 ;; Data sizes:     COMRAM   BANK5   BANK6   BANK7   BANK8   BANK9  BANK10  BANK11  BANK12  BANK13  BANK14  BANK15  BANK1
      +6  BANK17  BANK18  BANK19  BANK20  BANK21
  4277 ;;      Params:         0       0       0       0       0       0       0       0       0       0       0       0       
      +0       0       0       0       0       0
  4278 ;;      Locals:         1       0       0       0       0       0       0       0       0       0       0       0       
      +0       0       0       0       0       0
  4279 ;;      Temps:          0       0       0       0       0       0       0       0       0       0       0       0       
      +0       0       0       0       0       0
  4280 ;;      Totals:         1       0       0       0       0       0       0       0       0       0       0       0       
      +0       0       0       0       0       0
  4281 ;;Total ram usage:        1 bytes
  4282 ;; Hardware stack levels used:    1
  4283 ;; Hardware stack levels required when called:    4
  4284 ;; This function calls:
  4285 ;;		_UART1_Write
  4286 ;; This function is called by:
  4287 ;;		_fputc
  4288 ;; This function uses a non-reentrant model
  4289 ;;
  4290                           
  4291                           	psect	text34
  4292  0027F6                     __ptext34:
  4293                           	callstack 0
  4294  0027F6                     _putch:
  4295                           	callstack 119
  4296                           
  4297                           ;incstack = 0
  4298                           ;putch@txData stored from wreg
  4299  0027F6  6E02               	movwf	putch@txData^(0+1280),c
  4300  0027F8                     
  4301                           ;mcc_generated_files/uart1.c: 184: void putch(char txData);mcc_generated_files/uart1.c: 
      +                          185: {;mcc_generated_files/uart1.c: 186:     UART1_Write(txData);
  4302  0027F8  5002               	movf	putch@txData^(0+1280),w,c
  4303  0027FA  ECC1  F013         	call	_UART1_Write
  4304  0027FE  0012               	return		;funcret
  4305  002800                     __end_of_putch:
  4306                           	callstack 0
  4307                           
  4308 ;; *************** function _UART1_Write *****************
  4309 ;; Defined at:
  4310 ;;		line 170 in file "mcc_generated_files/uart1.c"
  4311 ;; Parameters:    Size  Location     Type
  4312 ;;  txData          1    wreg     unsigned char 
  4313 ;; Auto vars:     Size  Location     Type
  4314 ;;  txData          1    0[COMRAM] unsigned char 
  4315 ;; Return value:  Size  Location     Type
  4316 ;;                  1    wreg      void 
  4317 ;; Registers used:
  4318 ;;		wreg
  4319 ;; Tracked objects:
  4320 ;;		On entry : 0/0
  4321 ;;		On exit  : 0/0
  4322 ;;		Unchanged: 0/0
  4323 ;; Data sizes:     COMRAM   BANK5   BANK6   BANK7   BANK8   BANK9  BANK10  BANK11  BANK12  BANK13  BANK14  BANK15  BANK1
      +6  BANK17  BANK18  BANK19  BANK20  BANK21
  4324 ;;      Params:         0       0       0       0       0       0       0       0       0       0       0       0       
      +0       0       0       0       0       0
  4325 ;;      Locals:         1       0       0       0       0       0       0       0       0       0       0       0       
      +0       0       0       0       0       0
  4326 ;;      Temps:          0       0       0       0       0       0       0       0       0       0       0       0       
      +0       0       0       0       0       0
  4327 ;;      Totals:         1       0       0       0       0       0       0       0       0       0       0       0       
      +0       0       0       0       0       0
  4328 ;;Total ram usage:        1 bytes
  4329 ;; Hardware stack levels used:    1
  4330 ;; Hardware stack levels required when called:    3
  4331 ;; This function calls:
  4332 ;;		Nothing
  4333 ;; This function is called by:
  4334 ;;		_putch
  4335 ;; This function uses a non-reentrant model
  4336 ;;
  4337                           
  4338                           	psect	text35
  4339  002782                     __ptext35:
  4340                           	callstack 0
  4341  002782                     _UART1_Write:
  4342                           	callstack 119
  4343                           
  4344                           ;incstack = 0
  4345                           ;UART1_Write@txData stored from wreg
  4346  002782  6E01               	movwf	UART1_Write@txData^(0+1280),c
  4347  002784                     l153:
  4348                           
  4349                           ;mcc_generated_files/uart1.c: 172:     while(0 == PIR4bits.U1TXIF)
  4350  002784  A2B7               	btfss	183,1,c	;volatile
  4351  002786  EFC7  F013         	goto	u961
  4352  00278A  EFC9  F013         	goto	u960
  4353  00278E                     u961:
  4354  00278E  EFC2  F013         	goto	l153
  4355  002792                     u960:
  4356  002792                     
  4357                           ;mcc_generated_files/uart1.c: 176:     U1TXB = txData;
  4358  002792  0061  F404  F2A3   	movff	UART1_Write@txData,675	;volatile
  4359  002798  0012               	return		;funcret
  4360  00279A                     __end_of_UART1_Write:
  4361                           	callstack 0
  4362                           
  4363 ;; *************** function _abs *****************
  4364 ;; Defined at:
  4365 ;;		line 1 in file "C:\Program Files\Microchip\xc8\v2.20\pic\sources\c99\common\abs.c"
  4366 ;; Parameters:    Size  Location     Type
  4367 ;;  a               2   18[COMRAM] int 
  4368 ;; Auto vars:     Size  Location     Type
  4369 ;;		None
  4370 ;; Return value:  Size  Location     Type
  4371 ;;                  2   18[COMRAM] int 
  4372 ;; Registers used:
  4373 ;;		wreg, status,2, status,0
  4374 ;; Tracked objects:
  4375 ;;		On entry : 0/0
  4376 ;;		On exit  : 0/0
  4377 ;;		Unchanged: 0/0
  4378 ;; Data sizes:     COMRAM   BANK5   BANK6   BANK7   BANK8   BANK9  BANK10  BANK11  BANK12  BANK13  BANK14  BANK15  BANK1
      +6  BANK17  BANK18  BANK19  BANK20  BANK21
  4379 ;;      Params:         2       0       0       0       0       0       0       0       0       0       0       0       
      +0       0       0       0       0       0
  4380 ;;      Locals:         0       0       0       0       0       0       0       0       0       0       0       0       
      +0       0       0       0       0       0
  4381 ;;      Temps:          2       0       0       0       0       0       0       0       0       0       0       0       
      +0       0       0       0       0       0
  4382 ;;      Totals:         4       0       0       0       0       0       0       0       0       0       0       0       
      +0       0       0       0       0       0
  4383 ;;Total ram usage:        4 bytes
  4384 ;; Hardware stack levels used:    1
  4385 ;; Hardware stack levels required when called:    3
  4386 ;; This function calls:
  4387 ;;		Nothing
  4388 ;; This function is called by:
  4389 ;;		_dtoa
  4390 ;; This function uses a non-reentrant model
  4391 ;;
  4392                           
  4393                           	psect	text36
  4394  002544                     __ptext36:
  4395                           	callstack 0
  4396  002544                     _abs:
  4397                           	callstack 120
  4398  002544  BE14               	btfsc	(abs@a+1)^(0+1280),7,c
  4399  002546  EFAF  F012         	goto	u1200
  4400  00254A  5014               	movf	(abs@a+1)^(0+1280),w,c
  4401  00254C  E106               	bnz	u1201
  4402  00254E  0413               	decf	abs@a^(0+1280),w,c
  4403  002550  B0D8               	btfsc	status,0,c
  4404  002552  EFAD  F012         	goto	u1201
  4405  002556  EFAF  F012         	goto	u1200
  4406  00255A                     u1201:
  4407  00255A  EFBD  F012         	goto	l1622
  4408  00255E                     u1200:
  4409  00255E  C513  F515         	movff	abs@a,??_abs
  4410  002562  C514  F516         	movff	abs@a+1,??_abs+1
  4411  002566  1E15               	comf	??_abs^(0+1280),f,c
  4412  002568  1E16               	comf	(??_abs+1)^(0+1280),f,c
  4413  00256A  4A15               	infsnz	??_abs^(0+1280),f,c
  4414  00256C  2A16               	incf	(??_abs+1)^(0+1280),f,c
  4415  00256E  C515  F513         	movff	??_abs,?_abs
  4416  002572  C516  F514         	movff	??_abs+1,?_abs+1
  4417  002576  EFC1  F012         	goto	l1625
  4418  00257A                     l1622:
  4419  00257A  C513  F513         	movff	abs@a,?_abs
  4420  00257E  C514  F514         	movff	abs@a+1,?_abs+1
  4421  002582                     l1625:
  4422  002582  0012               	return		;funcret
  4423  002584                     __end_of_abs:
  4424                           	callstack 0
  4425                           
  4426 ;; *************** function ___aomod *****************
  4427 ;; Defined at:
  4428 ;;		line 9 in file "C:\Program Files\Microchip\xc8\v2.20\pic\sources\c99\common\aomod.c"
  4429 ;; Parameters:    Size  Location     Type
  4430 ;;  dividend        8    0[COMRAM] long long 
  4431 ;;  divisor         8    8[COMRAM] long long 
  4432 ;; Auto vars:     Size  Location     Type
  4433 ;;  sign            1   17[COMRAM] unsigned char 
  4434 ;;  counter         1   16[COMRAM] unsigned char 
  4435 ;; Return value:  Size  Location     Type
  4436 ;;                  8    0[COMRAM] long long 
  4437 ;; Registers used:
  4438 ;;		wreg, status,2, status,0
  4439 ;; Tracked objects:
  4440 ;;		On entry : 0/0
  4441 ;;		On exit  : 0/0
  4442 ;;		Unchanged: 0/0
  4443 ;; Data sizes:     COMRAM   BANK5   BANK6   BANK7   BANK8   BANK9  BANK10  BANK11  BANK12  BANK13  BANK14  BANK15  BANK1
      +6  BANK17  BANK18  BANK19  BANK20  BANK21
  4444 ;;      Params:        16       0       0       0       0       0       0       0       0       0       0       0       
      +0       0       0       0       0       0
  4445 ;;      Locals:         2       0       0       0       0       0       0       0       0       0       0       0       
      +0       0       0       0       0       0
  4446 ;;      Temps:          0       0       0       0       0       0       0       0       0       0       0       0       
      +0       0       0       0       0       0
  4447 ;;      Totals:        18       0       0       0       0       0       0       0       0       0       0       0       
      +0       0       0       0       0       0
  4448 ;;Total ram usage:       18 bytes
  4449 ;; Hardware stack levels used:    1
  4450 ;; Hardware stack levels required when called:    3
  4451 ;; This function calls:
  4452 ;;		Nothing
  4453 ;; This function is called by:
  4454 ;;		_dtoa
  4455 ;; This function uses a non-reentrant model
  4456 ;;
  4457                           
  4458                           	psect	text37
  4459  001D28                     __ptext37:
  4460                           	callstack 0
  4461  001D28                     ___aomod:
  4462                           	callstack 120
  4463  001D28  0E00               	movlw	0
  4464  001D2A  6E12               	movwf	___aomod@sign^(0+1280),c
  4465  001D2C  BE08               	btfsc	(___aomod@dividend+7)^(0+1280),7,c
  4466  001D2E  EF9D  F00E         	goto	u1100
  4467  001D32  EF9B  F00E         	goto	u1101
  4468  001D36                     u1101:
  4469  001D36  EFAF  F00E         	goto	l2625
  4470  001D3A                     u1100:
  4471  001D3A  1E08               	comf	(___aomod@dividend+7)^(0+1280),f,c
  4472  001D3C  1E07               	comf	(___aomod@dividend+6)^(0+1280),f,c
  4473  001D3E  1E06               	comf	(___aomod@dividend+5)^(0+1280),f,c
  4474  001D40  1E05               	comf	(___aomod@dividend+4)^(0+1280),f,c
  4475  001D42  1E04               	comf	(___aomod@dividend+3)^(0+1280),f,c
  4476  001D44  1E03               	comf	(___aomod@dividend+2)^(0+1280),f,c
  4477  001D46  1E02               	comf	(___aomod@dividend+1)^(0+1280),f,c
  4478  001D48  6C01               	negf	___aomod@dividend^(0+1280),c
  4479  001D4A  0E00               	movlw	0
  4480  001D4C  2202               	addwfc	(___aomod@dividend+1)^(0+1280),f,c
  4481  001D4E  2203               	addwfc	(___aomod@dividend+2)^(0+1280),f,c
  4482  001D50  2204               	addwfc	(___aomod@dividend+3)^(0+1280),f,c
  4483  001D52  2205               	addwfc	(___aomod@dividend+4)^(0+1280),f,c
  4484  001D54  2206               	addwfc	(___aomod@dividend+5)^(0+1280),f,c
  4485  001D56  2207               	addwfc	(___aomod@dividend+6)^(0+1280),f,c
  4486  001D58  2208               	addwfc	(___aomod@dividend+7)^(0+1280),f,c
  4487  001D5A  0E01               	movlw	1
  4488  001D5C  6E12               	movwf	___aomod@sign^(0+1280),c
  4489  001D5E                     l2625:
  4490  001D5E  BE10               	btfsc	(___aomod@divisor+7)^(0+1280),7,c
  4491  001D60  EFB6  F00E         	goto	u1110
  4492  001D64  EFB4  F00E         	goto	u1111
  4493  001D68                     u1111:
  4494  001D68  EFC6  F00E         	goto	l2629
  4495  001D6C                     u1110:
  4496  001D6C  1E10               	comf	(___aomod@divisor+7)^(0+1280),f,c
  4497  001D6E  1E0F               	comf	(___aomod@divisor+6)^(0+1280),f,c
  4498  001D70  1E0E               	comf	(___aomod@divisor+5)^(0+1280),f,c
  4499  001D72  1E0D               	comf	(___aomod@divisor+4)^(0+1280),f,c
  4500  001D74  1E0C               	comf	(___aomod@divisor+3)^(0+1280),f,c
  4501  001D76  1E0B               	comf	(___aomod@divisor+2)^(0+1280),f,c
  4502  001D78  1E0A               	comf	(___aomod@divisor+1)^(0+1280),f,c
  4503  001D7A  6C09               	negf	___aomod@divisor^(0+1280),c
  4504  001D7C  0E00               	movlw	0
  4505  001D7E  220A               	addwfc	(___aomod@divisor+1)^(0+1280),f,c
  4506  001D80  220B               	addwfc	(___aomod@divisor+2)^(0+1280),f,c
  4507  001D82  220C               	addwfc	(___aomod@divisor+3)^(0+1280),f,c
  4508  001D84  220D               	addwfc	(___aomod@divisor+4)^(0+1280),f,c
  4509  001D86  220E               	addwfc	(___aomod@divisor+5)^(0+1280),f,c
  4510  001D88  220F               	addwfc	(___aomod@divisor+6)^(0+1280),f,c
  4511  001D8A  2210               	addwfc	(___aomod@divisor+7)^(0+1280),f,c
  4512  001D8C                     l2629:
  4513  001D8C  5009               	movf	___aomod@divisor^(0+1280),w,c
  4514  001D8E  100A               	iorwf	(___aomod@divisor+1)^(0+1280),w,c
  4515  001D90  100B               	iorwf	(___aomod@divisor+2)^(0+1280),w,c
  4516  001D92  100C               	iorwf	(___aomod@divisor+3)^(0+1280),w,c
  4517  001D94  100D               	iorwf	(___aomod@divisor+4)^(0+1280),w,c
  4518  001D96  100E               	iorwf	(___aomod@divisor+5)^(0+1280),w,c
  4519  001D98  100F               	iorwf	(___aomod@divisor+6)^(0+1280),w,c
  4520  001D9A  1010               	iorwf	(___aomod@divisor+7)^(0+1280),w,c
  4521  001D9C  B4D8               	btfsc	status,2,c
  4522  001D9E  EFD3  F00E         	goto	u1121
  4523  001DA2  EFD5  F00E         	goto	u1120
  4524  001DA6                     u1121:
  4525  001DA6  EF1D  F00F         	goto	l2645
  4526  001DAA                     u1120:
  4527  001DAA  0E01               	movlw	1
  4528  001DAC  6E11               	movwf	___aomod@counter^(0+1280),c
  4529  001DAE  EFE3  F00E         	goto	l2635
  4530  001DB2                     l2633:
  4531  001DB2  90D8               	bcf	status,0,c
  4532  001DB4  3609               	rlcf	___aomod@divisor^(0+1280),f,c
  4533  001DB6  360A               	rlcf	(___aomod@divisor+1)^(0+1280),f,c
  4534  001DB8  360B               	rlcf	(___aomod@divisor+2)^(0+1280),f,c
  4535  001DBA  360C               	rlcf	(___aomod@divisor+3)^(0+1280),f,c
  4536  001DBC  360D               	rlcf	(___aomod@divisor+4)^(0+1280),f,c
  4537  001DBE  360E               	rlcf	(___aomod@divisor+5)^(0+1280),f,c
  4538  001DC0  360F               	rlcf	(___aomod@divisor+6)^(0+1280),f,c
  4539  001DC2  3610               	rlcf	(___aomod@divisor+7)^(0+1280),f,c
  4540  001DC4  2A11               	incf	___aomod@counter^(0+1280),f,c
  4541  001DC6                     l2635:
  4542  001DC6  AE10               	btfss	(___aomod@divisor+7)^(0+1280),7,c
  4543  001DC8  EFE8  F00E         	goto	u1131
  4544  001DCC  EFEA  F00E         	goto	u1130
  4545  001DD0                     u1131:
  4546  001DD0  EFD9  F00E         	goto	l2633
  4547  001DD4                     u1130:
  4548  001DD4                     l2637:
  4549  001DD4  5009               	movf	___aomod@divisor^(0+1280),w,c
  4550  001DD6  5C01               	subwf	___aomod@dividend^(0+1280),w,c
  4551  001DD8  500A               	movf	(___aomod@divisor+1)^(0+1280),w,c
  4552  001DDA  5802               	subwfb	(___aomod@dividend+1)^(0+1280),w,c
  4553  001DDC  500B               	movf	(___aomod@divisor+2)^(0+1280),w,c
  4554  001DDE  5803               	subwfb	(___aomod@dividend+2)^(0+1280),w,c
  4555  001DE0  500C               	movf	(___aomod@divisor+3)^(0+1280),w,c
  4556  001DE2  5804               	subwfb	(___aomod@dividend+3)^(0+1280),w,c
  4557  001DE4  500D               	movf	(___aomod@divisor+4)^(0+1280),w,c
  4558  001DE6  5805               	subwfb	(___aomod@dividend+4)^(0+1280),w,c
  4559  001DE8  500E               	movf	(___aomod@divisor+5)^(0+1280),w,c
  4560  001DEA  5806               	subwfb	(___aomod@dividend+5)^(0+1280),w,c
  4561  001DEC  500F               	movf	(___aomod@divisor+6)^(0+1280),w,c
  4562  001DEE  5807               	subwfb	(___aomod@dividend+6)^(0+1280),w,c
  4563  001DF0  5010               	movf	(___aomod@divisor+7)^(0+1280),w,c
  4564  001DF2  5808               	subwfb	(___aomod@dividend+7)^(0+1280),w,c
  4565  001DF4  A0D8               	btfss	status,0,c
  4566  001DF6  EFFF  F00E         	goto	u1141
  4567  001DFA  EF01  F00F         	goto	u1140
  4568  001DFE                     u1141:
  4569  001DFE  EF11  F00F         	goto	l2641
  4570  001E02                     u1140:
  4571  001E02  5009               	movf	___aomod@divisor^(0+1280),w,c
  4572  001E04  5E01               	subwf	___aomod@dividend^(0+1280),f,c
  4573  001E06  500A               	movf	(___aomod@divisor+1)^(0+1280),w,c
  4574  001E08  5A02               	subwfb	(___aomod@dividend+1)^(0+1280),f,c
  4575  001E0A  500B               	movf	(___aomod@divisor+2)^(0+1280),w,c
  4576  001E0C  5A03               	subwfb	(___aomod@dividend+2)^(0+1280),f,c
  4577  001E0E  500C               	movf	(___aomod@divisor+3)^(0+1280),w,c
  4578  001E10  5A04               	subwfb	(___aomod@dividend+3)^(0+1280),f,c
  4579  001E12  500D               	movf	(___aomod@divisor+4)^(0+1280),w,c
  4580  001E14  5A05               	subwfb	(___aomod@dividend+4)^(0+1280),f,c
  4581  001E16  500E               	movf	(___aomod@divisor+5)^(0+1280),w,c
  4582  001E18  5A06               	subwfb	(___aomod@dividend+5)^(0+1280),f,c
  4583  001E1A  500F               	movf	(___aomod@divisor+6)^(0+1280),w,c
  4584  001E1C  5A07               	subwfb	(___aomod@dividend+6)^(0+1280),f,c
  4585  001E1E  5010               	movf	(___aomod@divisor+7)^(0+1280),w,c
  4586  001E20  5A08               	subwfb	(___aomod@dividend+7)^(0+1280),f,c
  4587  001E22                     l2641:
  4588  001E22  90D8               	bcf	status,0,c
  4589  001E24  3210               	rrcf	(___aomod@divisor+7)^(0+1280),f,c
  4590  001E26  320F               	rrcf	(___aomod@divisor+6)^(0+1280),f,c
  4591  001E28  320E               	rrcf	(___aomod@divisor+5)^(0+1280),f,c
  4592  001E2A  320D               	rrcf	(___aomod@divisor+4)^(0+1280),f,c
  4593  001E2C  320C               	rrcf	(___aomod@divisor+3)^(0+1280),f,c
  4594  001E2E  320B               	rrcf	(___aomod@divisor+2)^(0+1280),f,c
  4595  001E30  320A               	rrcf	(___aomod@divisor+1)^(0+1280),f,c
  4596  001E32  3209               	rrcf	___aomod@divisor^(0+1280),f,c
  4597  001E34  2E11               	decfsz	___aomod@counter^(0+1280),f,c
  4598  001E36  EFEA  F00E         	goto	l2637
  4599  001E3A                     l2645:
  4600  001E3A  5012               	movf	___aomod@sign^(0+1280),w,c
  4601  001E3C  B4D8               	btfsc	status,2,c
  4602  001E3E  EF23  F00F         	goto	u1151
  4603  001E42  EF25  F00F         	goto	u1150
  4604  001E46                     u1151:
  4605  001E46  EF35  F00F         	goto	l2649
  4606  001E4A                     u1150:
  4607  001E4A  1E08               	comf	(___aomod@dividend+7)^(0+1280),f,c
  4608  001E4C  1E07               	comf	(___aomod@dividend+6)^(0+1280),f,c
  4609  001E4E  1E06               	comf	(___aomod@dividend+5)^(0+1280),f,c
  4610  001E50  1E05               	comf	(___aomod@dividend+4)^(0+1280),f,c
  4611  001E52  1E04               	comf	(___aomod@dividend+3)^(0+1280),f,c
  4612  001E54  1E03               	comf	(___aomod@dividend+2)^(0+1280),f,c
  4613  001E56  1E02               	comf	(___aomod@dividend+1)^(0+1280),f,c
  4614  001E58  6C01               	negf	___aomod@dividend^(0+1280),c
  4615  001E5A  0E00               	movlw	0
  4616  001E5C  2202               	addwfc	(___aomod@dividend+1)^(0+1280),f,c
  4617  001E5E  2203               	addwfc	(___aomod@dividend+2)^(0+1280),f,c
  4618  001E60  2204               	addwfc	(___aomod@dividend+3)^(0+1280),f,c
  4619  001E62  2205               	addwfc	(___aomod@dividend+4)^(0+1280),f,c
  4620  001E64  2206               	addwfc	(___aomod@dividend+5)^(0+1280),f,c
  4621  001E66  2207               	addwfc	(___aomod@dividend+6)^(0+1280),f,c
  4622  001E68  2208               	addwfc	(___aomod@dividend+7)^(0+1280),f,c
  4623  001E6A                     l2649:
  4624  001E6A  C501  F501         	movff	___aomod@dividend,?___aomod
  4625  001E6E  C502  F502         	movff	___aomod@dividend+1,?___aomod+1
  4626  001E72  C503  F503         	movff	___aomod@dividend+2,?___aomod+2
  4627  001E76  C504  F504         	movff	___aomod@dividend+3,?___aomod+3
  4628  001E7A  C505  F505         	movff	___aomod@dividend+4,?___aomod+4
  4629  001E7E  C506  F506         	movff	___aomod@dividend+5,?___aomod+5
  4630  001E82  C507  F507         	movff	___aomod@dividend+6,?___aomod+6
  4631  001E86  C508  F508         	movff	___aomod@dividend+7,?___aomod+7
  4632  001E8A  0012               	return		;funcret
  4633  001E8C                     __end_of___aomod:
  4634                           	callstack 0
  4635                           
  4636 ;; *************** function ___aodiv *****************
  4637 ;; Defined at:
  4638 ;;		line 9 in file "C:\Program Files\Microchip\xc8\v2.20\pic\sources\c99\common\aodiv.c"
  4639 ;; Parameters:    Size  Location     Type
  4640 ;;  dividend        8    0[COMRAM] long long 
  4641 ;;  divisor         8    8[COMRAM] long long 
  4642 ;; Auto vars:     Size  Location     Type
  4643 ;;  quotient        8   18[COMRAM] long long 
  4644 ;;  sign            1   17[COMRAM] unsigned char 
  4645 ;;  counter         1   16[COMRAM] unsigned char 
  4646 ;; Return value:  Size  Location     Type
  4647 ;;                  8    0[COMRAM] long long 
  4648 ;; Registers used:
  4649 ;;		wreg, fsr2l, fsr2h, status,2, status,0
  4650 ;; Tracked objects:
  4651 ;;		On entry : 0/0
  4652 ;;		On exit  : 0/0
  4653 ;;		Unchanged: 0/0
  4654 ;; Data sizes:     COMRAM   BANK5   BANK6   BANK7   BANK8   BANK9  BANK10  BANK11  BANK12  BANK13  BANK14  BANK15  BANK1
      +6  BANK17  BANK18  BANK19  BANK20  BANK21
  4655 ;;      Params:        16       0       0       0       0       0       0       0       0       0       0       0       
      +0       0       0       0       0       0
  4656 ;;      Locals:        10       0       0       0       0       0       0       0       0       0       0       0       
      +0       0       0       0       0       0
  4657 ;;      Temps:          0       0       0       0       0       0       0       0       0       0       0       0       
      +0       0       0       0       0       0
  4658 ;;      Totals:        26       0       0       0       0       0       0       0       0       0       0       0       
      +0       0       0       0       0       0
  4659 ;;Total ram usage:       26 bytes
  4660 ;; Hardware stack levels used:    1
  4661 ;; Hardware stack levels required when called:    3
  4662 ;; This function calls:
  4663 ;;		Nothing
  4664 ;; This function is called by:
  4665 ;;		_dtoa
  4666 ;; This function uses a non-reentrant model
  4667 ;;
  4668                           
  4669                           	psect	text38
  4670  001BA0                     __ptext38:
  4671                           	callstack 0
  4672  001BA0                     ___aodiv:
  4673                           	callstack 120
  4674  001BA0  0E00               	movlw	0
  4675  001BA2  6E12               	movwf	___aodiv@sign^(0+1280),c
  4676  001BA4  BE10               	btfsc	(___aodiv@divisor+7)^(0+1280),7,c
  4677  001BA6  EFD9  F00D         	goto	u1030
  4678  001BAA  EFD7  F00D         	goto	u1031
  4679  001BAE                     u1031:
  4680  001BAE  EFEB  F00D         	goto	l2581
  4681  001BB2                     u1030:
  4682  001BB2  1E10               	comf	(___aodiv@divisor+7)^(0+1280),f,c
  4683  001BB4  1E0F               	comf	(___aodiv@divisor+6)^(0+1280),f,c
  4684  001BB6  1E0E               	comf	(___aodiv@divisor+5)^(0+1280),f,c
  4685  001BB8  1E0D               	comf	(___aodiv@divisor+4)^(0+1280),f,c
  4686  001BBA  1E0C               	comf	(___aodiv@divisor+3)^(0+1280),f,c
  4687  001BBC  1E0B               	comf	(___aodiv@divisor+2)^(0+1280),f,c
  4688  001BBE  1E0A               	comf	(___aodiv@divisor+1)^(0+1280),f,c
  4689  001BC0  6C09               	negf	___aodiv@divisor^(0+1280),c
  4690  001BC2  0E00               	movlw	0
  4691  001BC4  220A               	addwfc	(___aodiv@divisor+1)^(0+1280),f,c
  4692  001BC6  220B               	addwfc	(___aodiv@divisor+2)^(0+1280),f,c
  4693  001BC8  220C               	addwfc	(___aodiv@divisor+3)^(0+1280),f,c
  4694  001BCA  220D               	addwfc	(___aodiv@divisor+4)^(0+1280),f,c
  4695  001BCC  220E               	addwfc	(___aodiv@divisor+5)^(0+1280),f,c
  4696  001BCE  220F               	addwfc	(___aodiv@divisor+6)^(0+1280),f,c
  4697  001BD0  2210               	addwfc	(___aodiv@divisor+7)^(0+1280),f,c
  4698  001BD2  0E01               	movlw	1
  4699  001BD4  6E12               	movwf	___aodiv@sign^(0+1280),c
  4700  001BD6                     l2581:
  4701  001BD6  BE08               	btfsc	(___aodiv@dividend+7)^(0+1280),7,c
  4702  001BD8  EFF2  F00D         	goto	u1040
  4703  001BDC  EFF0  F00D         	goto	u1041
  4704  001BE0                     u1041:
  4705  001BE0  EF04  F00E         	goto	l2587
  4706  001BE4                     u1040:
  4707  001BE4  1E08               	comf	(___aodiv@dividend+7)^(0+1280),f,c
  4708  001BE6  1E07               	comf	(___aodiv@dividend+6)^(0+1280),f,c
  4709  001BE8  1E06               	comf	(___aodiv@dividend+5)^(0+1280),f,c
  4710  001BEA  1E05               	comf	(___aodiv@dividend+4)^(0+1280),f,c
  4711  001BEC  1E04               	comf	(___aodiv@dividend+3)^(0+1280),f,c
  4712  001BEE  1E03               	comf	(___aodiv@dividend+2)^(0+1280),f,c
  4713  001BF0  1E02               	comf	(___aodiv@dividend+1)^(0+1280),f,c
  4714  001BF2  6C01               	negf	___aodiv@dividend^(0+1280),c
  4715  001BF4  0E00               	movlw	0
  4716  001BF6  2202               	addwfc	(___aodiv@dividend+1)^(0+1280),f,c
  4717  001BF8  2203               	addwfc	(___aodiv@dividend+2)^(0+1280),f,c
  4718  001BFA  2204               	addwfc	(___aodiv@dividend+3)^(0+1280),f,c
  4719  001BFC  2205               	addwfc	(___aodiv@dividend+4)^(0+1280),f,c
  4720  001BFE  2206               	addwfc	(___aodiv@dividend+5)^(0+1280),f,c
  4721  001C00  2207               	addwfc	(___aodiv@dividend+6)^(0+1280),f,c
  4722  001C02  2208               	addwfc	(___aodiv@dividend+7)^(0+1280),f,c
  4723  001C04  0E01               	movlw	1
  4724  001C06  1A12               	xorwf	___aodiv@sign^(0+1280),f,c
  4725  001C08                     l2587:
  4726  001C08  EE21  F113         	lfsr	2,___aodiv@quotient
  4727  001C0C  0E07               	movlw	7
  4728  001C0E                     u1051:
  4729  001C0E  6ADE               	clrf	postinc2,c
  4730  001C10  06E8               	decf	wreg,f,c
  4731  001C12  E2FD               	bc	u1051
  4732  001C14  5009               	movf	___aodiv@divisor^(0+1280),w,c
  4733  001C16  100A               	iorwf	(___aodiv@divisor+1)^(0+1280),w,c
  4734  001C18  100B               	iorwf	(___aodiv@divisor+2)^(0+1280),w,c
  4735  001C1A  100C               	iorwf	(___aodiv@divisor+3)^(0+1280),w,c
  4736  001C1C  100D               	iorwf	(___aodiv@divisor+4)^(0+1280),w,c
  4737  001C1E  100E               	iorwf	(___aodiv@divisor+5)^(0+1280),w,c
  4738  001C20  100F               	iorwf	(___aodiv@divisor+6)^(0+1280),w,c
  4739  001C22  1010               	iorwf	(___aodiv@divisor+7)^(0+1280),w,c
  4740  001C24  B4D8               	btfsc	status,2,c
  4741  001C26  EF17  F00E         	goto	u1061
  4742  001C2A  EF19  F00E         	goto	u1060
  4743  001C2E                     u1061:
  4744  001C2E  EF6B  F00E         	goto	l2609
  4745  001C32                     u1060:
  4746  001C32  0E01               	movlw	1
  4747  001C34  6E11               	movwf	___aodiv@counter^(0+1280),c
  4748  001C36  EF27  F00E         	goto	l2595
  4749  001C3A                     l2593:
  4750  001C3A  90D8               	bcf	status,0,c
  4751  001C3C  3609               	rlcf	___aodiv@divisor^(0+1280),f,c
  4752  001C3E  360A               	rlcf	(___aodiv@divisor+1)^(0+1280),f,c
  4753  001C40  360B               	rlcf	(___aodiv@divisor+2)^(0+1280),f,c
  4754  001C42  360C               	rlcf	(___aodiv@divisor+3)^(0+1280),f,c
  4755  001C44  360D               	rlcf	(___aodiv@divisor+4)^(0+1280),f,c
  4756  001C46  360E               	rlcf	(___aodiv@divisor+5)^(0+1280),f,c
  4757  001C48  360F               	rlcf	(___aodiv@divisor+6)^(0+1280),f,c
  4758  001C4A  3610               	rlcf	(___aodiv@divisor+7)^(0+1280),f,c
  4759  001C4C  2A11               	incf	___aodiv@counter^(0+1280),f,c
  4760  001C4E                     l2595:
  4761  001C4E  AE10               	btfss	(___aodiv@divisor+7)^(0+1280),7,c
  4762  001C50  EF2C  F00E         	goto	u1071
  4763  001C54  EF2E  F00E         	goto	u1070
  4764  001C58                     u1071:
  4765  001C58  EF1D  F00E         	goto	l2593
  4766  001C5C                     u1070:
  4767  001C5C                     l2597:
  4768  001C5C  90D8               	bcf	status,0,c
  4769  001C5E  3613               	rlcf	___aodiv@quotient^(0+1280),f,c
  4770  001C60  3614               	rlcf	(___aodiv@quotient+1)^(0+1280),f,c
  4771  001C62  3615               	rlcf	(___aodiv@quotient+2)^(0+1280),f,c
  4772  001C64  3616               	rlcf	(___aodiv@quotient+3)^(0+1280),f,c
  4773  001C66  3617               	rlcf	(___aodiv@quotient+4)^(0+1280),f,c
  4774  001C68  3618               	rlcf	(___aodiv@quotient+5)^(0+1280),f,c
  4775  001C6A  3619               	rlcf	(___aodiv@quotient+6)^(0+1280),f,c
  4776  001C6C  361A               	rlcf	(___aodiv@quotient+7)^(0+1280),f,c
  4777  001C6E  5009               	movf	___aodiv@divisor^(0+1280),w,c
  4778  001C70  5C01               	subwf	___aodiv@dividend^(0+1280),w,c
  4779  001C72  500A               	movf	(___aodiv@divisor+1)^(0+1280),w,c
  4780  001C74  5802               	subwfb	(___aodiv@dividend+1)^(0+1280),w,c
  4781  001C76  500B               	movf	(___aodiv@divisor+2)^(0+1280),w,c
  4782  001C78  5803               	subwfb	(___aodiv@dividend+2)^(0+1280),w,c
  4783  001C7A  500C               	movf	(___aodiv@divisor+3)^(0+1280),w,c
  4784  001C7C  5804               	subwfb	(___aodiv@dividend+3)^(0+1280),w,c
  4785  001C7E  500D               	movf	(___aodiv@divisor+4)^(0+1280),w,c
  4786  001C80  5805               	subwfb	(___aodiv@dividend+4)^(0+1280),w,c
  4787  001C82  500E               	movf	(___aodiv@divisor+5)^(0+1280),w,c
  4788  001C84  5806               	subwfb	(___aodiv@dividend+5)^(0+1280),w,c
  4789  001C86  500F               	movf	(___aodiv@divisor+6)^(0+1280),w,c
  4790  001C88  5807               	subwfb	(___aodiv@dividend+6)^(0+1280),w,c
  4791  001C8A  5010               	movf	(___aodiv@divisor+7)^(0+1280),w,c
  4792  001C8C  5808               	subwfb	(___aodiv@dividend+7)^(0+1280),w,c
  4793  001C8E  A0D8               	btfss	status,0,c
  4794  001C90  EF4C  F00E         	goto	u1081
  4795  001C94  EF4E  F00E         	goto	u1080
  4796  001C98                     u1081:
  4797  001C98  EF5F  F00E         	goto	l2605
  4798  001C9C                     u1080:
  4799  001C9C  5009               	movf	___aodiv@divisor^(0+1280),w,c
  4800  001C9E  5E01               	subwf	___aodiv@dividend^(0+1280),f,c
  4801  001CA0  500A               	movf	(___aodiv@divisor+1)^(0+1280),w,c
  4802  001CA2  5A02               	subwfb	(___aodiv@dividend+1)^(0+1280),f,c
  4803  001CA4  500B               	movf	(___aodiv@divisor+2)^(0+1280),w,c
  4804  001CA6  5A03               	subwfb	(___aodiv@dividend+2)^(0+1280),f,c
  4805  001CA8  500C               	movf	(___aodiv@divisor+3)^(0+1280),w,c
  4806  001CAA  5A04               	subwfb	(___aodiv@dividend+3)^(0+1280),f,c
  4807  001CAC  500D               	movf	(___aodiv@divisor+4)^(0+1280),w,c
  4808  001CAE  5A05               	subwfb	(___aodiv@dividend+4)^(0+1280),f,c
  4809  001CB0  500E               	movf	(___aodiv@divisor+5)^(0+1280),w,c
  4810  001CB2  5A06               	subwfb	(___aodiv@dividend+5)^(0+1280),f,c
  4811  001CB4  500F               	movf	(___aodiv@divisor+6)^(0+1280),w,c
  4812  001CB6  5A07               	subwfb	(___aodiv@dividend+6)^(0+1280),f,c
  4813  001CB8  5010               	movf	(___aodiv@divisor+7)^(0+1280),w,c
  4814  001CBA  5A08               	subwfb	(___aodiv@dividend+7)^(0+1280),f,c
  4815  001CBC  8013               	bsf	___aodiv@quotient^(0+1280),0,c
  4816  001CBE                     l2605:
  4817  001CBE  90D8               	bcf	status,0,c
  4818  001CC0  3210               	rrcf	(___aodiv@divisor+7)^(0+1280),f,c
  4819  001CC2  320F               	rrcf	(___aodiv@divisor+6)^(0+1280),f,c
  4820  001CC4  320E               	rrcf	(___aodiv@divisor+5)^(0+1280),f,c
  4821  001CC6  320D               	rrcf	(___aodiv@divisor+4)^(0+1280),f,c
  4822  001CC8  320C               	rrcf	(___aodiv@divisor+3)^(0+1280),f,c
  4823  001CCA  320B               	rrcf	(___aodiv@divisor+2)^(0+1280),f,c
  4824  001CCC  320A               	rrcf	(___aodiv@divisor+1)^(0+1280),f,c
  4825  001CCE  3209               	rrcf	___aodiv@divisor^(0+1280),f,c
  4826  001CD0  2E11               	decfsz	___aodiv@counter^(0+1280),f,c
  4827  001CD2  EF2E  F00E         	goto	l2597
  4828  001CD6                     l2609:
  4829  001CD6  5012               	movf	___aodiv@sign^(0+1280),w,c
  4830  001CD8  B4D8               	btfsc	status,2,c
  4831  001CDA  EF71  F00E         	goto	u1091
  4832  001CDE  EF73  F00E         	goto	u1090
  4833  001CE2                     u1091:
  4834  001CE2  EF83  F00E         	goto	l2613
  4835  001CE6                     u1090:
  4836  001CE6  1E1A               	comf	(___aodiv@quotient+7)^(0+1280),f,c
  4837  001CE8  1E19               	comf	(___aodiv@quotient+6)^(0+1280),f,c
  4838  001CEA  1E18               	comf	(___aodiv@quotient+5)^(0+1280),f,c
  4839  001CEC  1E17               	comf	(___aodiv@quotient+4)^(0+1280),f,c
  4840  001CEE  1E16               	comf	(___aodiv@quotient+3)^(0+1280),f,c
  4841  001CF0  1E15               	comf	(___aodiv@quotient+2)^(0+1280),f,c
  4842  001CF2  1E14               	comf	(___aodiv@quotient+1)^(0+1280),f,c
  4843  001CF4  6C13               	negf	___aodiv@quotient^(0+1280),c
  4844  001CF6  0E00               	movlw	0
  4845  001CF8  2214               	addwfc	(___aodiv@quotient+1)^(0+1280),f,c
  4846  001CFA  2215               	addwfc	(___aodiv@quotient+2)^(0+1280),f,c
  4847  001CFC  2216               	addwfc	(___aodiv@quotient+3)^(0+1280),f,c
  4848  001CFE  2217               	addwfc	(___aodiv@quotient+4)^(0+1280),f,c
  4849  001D00  2218               	addwfc	(___aodiv@quotient+5)^(0+1280),f,c
  4850  001D02  2219               	addwfc	(___aodiv@quotient+6)^(0+1280),f,c
  4851  001D04  221A               	addwfc	(___aodiv@quotient+7)^(0+1280),f,c
  4852  001D06                     l2613:
  4853  001D06  C513  F501         	movff	___aodiv@quotient,?___aodiv
  4854  001D0A  C514  F502         	movff	___aodiv@quotient+1,?___aodiv+1
  4855  001D0E  C515  F503         	movff	___aodiv@quotient+2,?___aodiv+2
  4856  001D12  C516  F504         	movff	___aodiv@quotient+3,?___aodiv+3
  4857  001D16  C517  F505         	movff	___aodiv@quotient+4,?___aodiv+4
  4858  001D1A  C518  F506         	movff	___aodiv@quotient+5,?___aodiv+5
  4859  001D1E  C519  F507         	movff	___aodiv@quotient+6,?___aodiv+6
  4860  001D22  C51A  F508         	movff	___aodiv@quotient+7,?___aodiv+7
  4861  001D26  0012               	return		;funcret
  4862  001D28                     __end_of___aodiv:
  4863                           	callstack 0
  4864                           
  4865 ;; *************** function _INTERRUPT_InterruptManager *****************
  4866 ;; Defined at:
  4867 ;;		line 58 in file "mcc_generated_files/interrupt_manager.c"
  4868 ;; Parameters:    Size  Location     Type
  4869 ;;		None
  4870 ;; Auto vars:     Size  Location     Type
  4871 ;;		None
  4872 ;; Return value:  Size  Location     Type
  4873 ;;                  1    wreg      void 
  4874 ;; Registers used:
  4875 ;;		wreg, status,2, status,0, pclath, tosl, cstack
  4876 ;; Tracked objects:
  4877 ;;		On entry : 0/0
  4878 ;;		On exit  : 0/0
  4879 ;;		Unchanged: 0/0
  4880 ;; Data sizes:     COMRAM   BANK5   BANK6   BANK7   BANK8   BANK9  BANK10  BANK11  BANK12  BANK13  BANK14  BANK15  BANK1
      +6  BANK17  BANK18  BANK19  BANK20  BANK21
  4881 ;;      Params:         0       0       0       0       0       0       0       0       0       0       0       0       
      +0       0       0       0       0       0
  4882 ;;      Locals:         0       0       0       0       0       0       0       0       0       0       0       0       
      +0       0       0       0       0       0
  4883 ;;      Temps:          0       0       0       0       0       0       0       0       0       0       0       0       
      +0       0       0       0       0       0
  4884 ;;      Totals:         0       0       0       0       0       0       0       0       0       0       0       0       
      +0       0       0       0       0       0
  4885 ;;Total ram usage:        0 bytes
  4886 ;; Hardware stack levels used:    1
  4887 ;; Hardware stack levels required when called:    2
  4888 ;; This function calls:
  4889 ;;		_ADCC_ISR
  4890 ;;		_CLC1_ISR
  4891 ;; This function is called by:
  4892 ;;		Interrupt level 2
  4893 ;; This function uses a non-reentrant model
  4894 ;;
  4895                           
  4896                           	psect	text39
  4897  0024BA                     __ptext39:
  4898                           	callstack 0
  4899  0024BA                     _INTERRUPT_InterruptManager:
  4900                           	callstack 115
  4901  0024BA                     
  4902                           ;mcc_generated_files/interrupt_manager.c: 61:     if(PIE0bits.CLC1IE == 1 && PIR0bits.CL
      +                          C1IF == 1)
  4903  0024BA  AAA8               	btfss	168,5,c	;volatile
  4904  0024BC  EF62  F012         	goto	i2u172_41
  4905  0024C0  EF64  F012         	goto	i2u172_40
  4906  0024C4                     i2u172_41:
  4907  0024C4  EF6F  F012         	goto	i2l521
  4908  0024C8                     i2u172_40:
  4909  0024C8  AAB3               	btfss	179,5,c	;volatile
  4910  0024CA  EF69  F012         	goto	i2u173_41
  4911  0024CE  EF6B  F012         	goto	i2u173_40
  4912  0024D2                     i2u173_41:
  4913  0024D2  EF6F  F012         	goto	i2l521
  4914  0024D6                     i2u173_40:
  4915  0024D6                     
  4916                           ;mcc_generated_files/interrupt_manager.c: 62:     {;mcc_generated_files/interrupt_manage
      +                          r.c: 63:         CLC1_ISR();
  4917  0024D6  EC00  F014         	call	_CLC1_ISR	;wreg free
  4918                           
  4919                           ;mcc_generated_files/interrupt_manager.c: 64:     }
  4920  0024DA  EF7F  F012         	goto	i2l525
  4921  0024DE                     i2l521:
  4922  0024DE  A4A9               	btfss	169,2,c	;volatile
  4923  0024E0  EF74  F012         	goto	i2u174_41
  4924  0024E4  EF76  F012         	goto	i2u174_40
  4925  0024E8                     i2u174_41:
  4926  0024E8  EF7F  F012         	goto	i2l525
  4927  0024EC                     i2u174_40:
  4928  0024EC  A4B4               	btfss	180,2,c	;volatile
  4929  0024EE  EF7B  F012         	goto	i2u175_41
  4930  0024F2  EF7D  F012         	goto	i2u175_40
  4931  0024F6                     i2u175_41:
  4932  0024F6  EF7F  F012         	goto	i2l525
  4933  0024FA                     i2u175_40:
  4934  0024FA                     
  4935                           ;mcc_generated_files/interrupt_manager.c: 66:     {;mcc_generated_files/interrupt_manage
      +                          r.c: 67:         ADCC_ISR();
  4936  0024FA  EC30  F013         	call	_ADCC_ISR	;wreg free
  4937  0024FE                     i2l525:
  4938  0024FE  0011               	retfie		f
  4939  002500                     __end_of_INTERRUPT_InterruptManager:
  4940                           	callstack 0
  4941                           
  4942 ;; *************** function _CLC1_ISR *****************
  4943 ;; Defined at:
  4944 ;;		line 93 in file "mcc_generated_files/clc1.c"
  4945 ;; Parameters:    Size  Location     Type
  4946 ;;		None
  4947 ;; Auto vars:     Size  Location     Type
  4948 ;;		None
  4949 ;; Return value:  Size  Location     Type
  4950 ;;                  1    wreg      void 
  4951 ;; Registers used:
  4952 ;;		wreg, status,2
  4953 ;; Tracked objects:
  4954 ;;		On entry : 0/0
  4955 ;;		On exit  : 0/0
  4956 ;;		Unchanged: 0/0
  4957 ;; Data sizes:     COMRAM   BANK5   BANK6   BANK7   BANK8   BANK9  BANK10  BANK11  BANK12  BANK13  BANK14  BANK15  BANK1
      +6  BANK17  BANK18  BANK19  BANK20  BANK21
  4958 ;;      Params:         0       0       0       0       0       0       0       0       0       0       0       0       
      +0       0       0       0       0       0
  4959 ;;      Locals:         0       0       0       0       0       0       0       0       0       0       0       0       
      +0       0       0       0       0       0
  4960 ;;      Temps:          0       0       0       0       0       0       0       0       0       0       0       0       
      +0       0       0       0       0       0
  4961 ;;      Totals:         0       0       0       0       0       0       0       0       0       0       0       0       
      +0       0       0       0       0       0
  4962 ;;Total ram usage:        0 bytes
  4963 ;; Hardware stack levels used:    1
  4964 ;; This function calls:
  4965 ;;		Nothing
  4966 ;; This function is called by:
  4967 ;;		_INTERRUPT_InterruptManager
  4968 ;; This function uses a non-reentrant model
  4969 ;;
  4970                           
  4971                           	psect	text40
  4972  002800                     __ptext40:
  4973                           	callstack 0
  4974  002800                     _CLC1_ISR:
  4975                           	callstack 116
  4976  002800                     
  4977                           ;mcc_generated_files/clc1.c: 96:     PIR0bits.CLC1IF = 0;
  4978  002800  9AB3               	bcf	179,5,c	;volatile
  4979  002802                     
  4980                           ;mcc_generated_files/clc1.c: 97:     SW0_flag = 1;
  4981  002802  0E01               	movlw	1
  4982  002804  0105               	movlb	5	; () banked
  4983  002806  6F71               	movwf	_SW0_flag& (0+255),b
  4984  002808                     
  4985                           ; BSR set to: 5
  4986  002808  0012               	return		;funcret
  4987  00280A                     __end_of_CLC1_ISR:
  4988                           	callstack 0
  4989                           
  4990 ;; *************** function _ADCC_ISR *****************
  4991 ;; Defined at:
  4992 ;;		line 306 in file "mcc_generated_files/adcc.c"
  4993 ;; Parameters:    Size  Location     Type
  4994 ;;		None
  4995 ;; Auto vars:     Size  Location     Type
  4996 ;;		None
  4997 ;; Return value:  Size  Location     Type
  4998 ;;                  1    wreg      void 
  4999 ;; Registers used:
  5000 ;;		wreg, status,2, status,0, pclath, tosl, cstack
  5001 ;; Tracked objects:
  5002 ;;		On entry : 0/0
  5003 ;;		On exit  : 0/0
  5004 ;;		Unchanged: 0/0
  5005 ;; Data sizes:     COMRAM   BANK5   BANK6   BANK7   BANK8   BANK9  BANK10  BANK11  BANK12  BANK13  BANK14  BANK15  BANK1
      +6  BANK17  BANK18  BANK19  BANK20  BANK21
  5006 ;;      Params:         0       0       0       0       0       0       0       0       0       0       0       0       
      +0       0       0       0       0       0
  5007 ;;      Locals:         0       0       0       0       0       0       0       0       0       0       0       0       
      +0       0       0       0       0       0
  5008 ;;      Temps:          0       0       0       0       0       0       0       0       0       0       0       0       
      +0       0       0       0       0       0
  5009 ;;      Totals:         0       0       0       0       0       0       0       0       0       0       0       0       
      +0       0       0       0       0       0
  5010 ;;Total ram usage:        0 bytes
  5011 ;; Hardware stack levels used:    1
  5012 ;; Hardware stack levels required when called:    1
  5013 ;; This function calls:
  5014 ;;		Absolute function
  5015 ;;		_ADCC_DefaultInterruptHandler
  5016 ;; This function is called by:
  5017 ;;		_INTERRUPT_InterruptManager
  5018 ;; This function uses a non-reentrant model
  5019 ;;
  5020                           
  5021                           	psect	text41
  5022  002660                     __ptext41:
  5023                           	callstack 0
  5024  002660                     _ADCC_ISR:
  5025                           	callstack 115
  5026  002660                     
  5027                           ;mcc_generated_files/adcc.c: 309:     PIR1bits.ADIF = 0;
  5028  002660  94B4               	bcf	180,2,c	;volatile
  5029  002662                     
  5030                           ;mcc_generated_files/adcc.c: 311:     if (ADCC_ADI_InterruptHandler)
  5031  002662  0105               	movlb	5	; () banked
  5032  002664  5196               	movf	_ADCC_ADI_InterruptHandler& (0+255),w,b
  5033  002666  1197               	iorwf	(_ADCC_ADI_InterruptHandler+1)& (0+255),w,b
  5034  002668  B4D8               	btfsc	status,2,c
  5035  00266A  EF39  F013         	goto	i2u156_41
  5036  00266E  EF3B  F013         	goto	i2u156_40
  5037  002672                     i2u156_41:
  5038  002672  EF47  F013         	goto	i2l701
  5039  002676                     i2u156_40:
  5040  002676                     
  5041                           ; BSR set to: 5
  5042                           ;mcc_generated_files/adcc.c: 312:             ADCC_ADI_InterruptHandler();
  5043  002676  D802               	call	i2u157_48
  5044  002678  EF47  F013         	goto	i2u157_49
  5045  00267C                     i2u157_48:
  5046  00267C  0005               	push	
  5047  00267E  6EFA               	movwf	pclath,c
  5048  002680  5196               	movf	_ADCC_ADI_InterruptHandler& (0+255),w,b
  5049  002682  6EFD               	movwf	tosl,c
  5050  002684  5197               	movf	(_ADCC_ADI_InterruptHandler+1)& (0+255),w,b
  5051  002686  6EFE               	movwf	tosh,c
  5052  002688  6AFF               	clrf	tosu,c
  5053  00268A  50FA               	movf	pclath,w,c
  5054  00268C  0012               	return		;indir
  5055  00268E                     i2u157_49:
  5056  00268E                     i2l701:
  5057  00268E  0012               	return		;funcret
  5058  002690                     __end_of_ADCC_ISR:
  5059                           	callstack 0
  5060                           
  5061 ;; *************** function _ADCC_DefaultInterruptHandler *****************
  5062 ;; Defined at:
  5063 ;;		line 319 in file "mcc_generated_files/adcc.c"
  5064 ;; Parameters:    Size  Location     Type
  5065 ;;		None
  5066 ;; Auto vars:     Size  Location     Type
  5067 ;;		None
  5068 ;; Return value:  Size  Location     Type
  5069 ;;                  1    wreg      void 
  5070 ;; Registers used:
  5071 ;;		wreg, status,2
  5072 ;; Tracked objects:
  5073 ;;		On entry : 0/0
  5074 ;;		On exit  : 0/0
  5075 ;;		Unchanged: 0/0
  5076 ;; Data sizes:     COMRAM   BANK5   BANK6   BANK7   BANK8   BANK9  BANK10  BANK11  BANK12  BANK13  BANK14  BANK15  BANK1
      +6  BANK17  BANK18  BANK19  BANK20  BANK21
  5077 ;;      Params:         0       0       0       0       0       0       0       0       0       0       0       0       
      +0       0       0       0       0       0
  5078 ;;      Locals:         0       0       0       0       0       0       0       0       0       0       0       0       
      +0       0       0       0       0       0
  5079 ;;      Temps:          0       0       0       0       0       0       0       0       0       0       0       0       
      +0       0       0       0       0       0
  5080 ;;      Totals:         0       0       0       0       0       0       0       0       0       0       0       0       
      +0       0       0       0       0       0
  5081 ;;Total ram usage:        0 bytes
  5082 ;; Hardware stack levels used:    1
  5083 ;; This function calls:
  5084 ;;		Nothing
  5085 ;; This function is called by:
  5086 ;;		_ADCC_Initialize
  5087 ;;		_ADCC_ISR
  5088 ;; This function uses a non-reentrant model
  5089 ;;
  5090                           
  5091                           	psect	text42
  5092  002812                     __ptext42:
  5093                           	callstack 0
  5094  002812                     _ADCC_DefaultInterruptHandler:
  5095                           	callstack 115
  5096  002812                     
  5097                           ;mcc_generated_files/adcc.c: 322:     adcc_flag = 1;
  5098  002812  0E01               	movlw	1
  5099  002814  0105               	movlb	5	; () banked
  5100  002816  6F72               	movwf	_adcc_flag& (0+255),b
  5101  002818                     
  5102                           ; BSR set to: 5
  5103  002818  0012               	return		;funcret
  5104  00281A                     __end_of_ADCC_DefaultInterruptHandler:
  5105                           	callstack 0
  5106                           
  5107                           ;
  5108                           ; Interrupt Vector Table @ 0x8
  5109                           ;
  5110                           
  5111                           	psect	ivt0x8
  5112  000008                     __pivt0x8:
  5113                           	callstack 0
  5114  000008                     ivt0x8_base:
  5115                           	callstack 0
  5116                           
  5117                           ; high-priority vector
  5118  000008  EF5D  F012         	goto	_INTERRUPT_InterruptManager
  5119  000018                     	org	16
  5120                           
  5121                           ; low-priority vector
  5122  000018  00FF               	reset	
  5123                           
  5124                           	psect	text43
  5125  000000                     __ptext43:
  5126                           	callstack 0
  5127  000000                     
  5128                           	psect	rparam
  5129  0000                     
  5130                           	psect	idloc
  5131                           
  5132                           ;Config register IDLOC0 @ 0x200000
  5133                           ;	unspecified, using default values
  5134  200000                     	org	2097152
  5135  200000  0FFF               	dw	4095
  5136                           
  5137                           ;Config register IDLOC1 @ 0x200002
  5138                           ;	unspecified, using default values
  5139  200002                     	org	2097154
  5140  200002  0FFF               	dw	4095
  5141                           
  5142                           ;Config register IDLOC2 @ 0x200004
  5143                           ;	unspecified, using default values
  5144  200004                     	org	2097156
  5145  200004  0FFF               	dw	4095
  5146                           
  5147                           ;Config register IDLOC3 @ 0x200006
  5148                           ;	unspecified, using default values
  5149  200006                     	org	2097158
  5150  200006  0FFF               	dw	4095
  5151                           
  5152                           ;Config register IDLOC4 @ 0x200008
  5153                           ;	unspecified, using default values
  5154  200008                     	org	2097160
  5155  200008  0FFF               	dw	4095
  5156                           
  5157                           ;Config register IDLOC5 @ 0x20000A
  5158                           ;	unspecified, using default values
  5159  20000A                     	org	2097162
  5160  20000A  0FFF               	dw	4095
  5161                           
  5162                           ;Config register IDLOC6 @ 0x20000C
  5163                           ;	unspecified, using default values
  5164  20000C                     	org	2097164
  5165  20000C  0FFF               	dw	4095
  5166                           
  5167                           ;Config register IDLOC7 @ 0x20000E
  5168                           ;	unspecified, using default values
  5169  20000E                     	org	2097166
  5170  20000E  0FFF               	dw	4095
  5171                           
  5172                           ;Config register IDLOC8 @ 0x200010
  5173                           ;	unspecified, using default values
  5174  200010                     	org	2097168
  5175  200010  0FFF               	dw	4095
  5176                           
  5177                           ;Config register IDLOC9 @ 0x200012
  5178                           ;	unspecified, using default values
  5179  200012                     	org	2097170
  5180  200012  0FFF               	dw	4095
  5181                           
  5182                           ;Config register IDLOC10 @ 0x200014
  5183                           ;	unspecified, using default values
  5184  200014                     	org	2097172
  5185  200014  0FFF               	dw	4095
  5186                           
  5187                           ;Config register IDLOC11 @ 0x200016
  5188                           ;	unspecified, using default values
  5189  200016                     	org	2097174
  5190  200016  0FFF               	dw	4095
  5191                           
  5192                           ;Config register IDLOC12 @ 0x200018
  5193                           ;	unspecified, using default values
  5194  200018                     	org	2097176
  5195  200018  0FFF               	dw	4095
  5196                           
  5197                           ;Config register IDLOC13 @ 0x20001A
  5198                           ;	unspecified, using default values
  5199  20001A                     	org	2097178
  5200  20001A  0FFF               	dw	4095
  5201                           
  5202                           ;Config register IDLOC14 @ 0x20001C
  5203                           ;	unspecified, using default values
  5204  20001C                     	org	2097180
  5205  20001C  0FFF               	dw	4095
  5206                           
  5207                           ;Config register IDLOC15 @ 0x20001E
  5208                           ;	unspecified, using default values
  5209  20001E                     	org	2097182
  5210  20001E  0FFF               	dw	4095
  5211                           
  5212                           	psect	config
  5213                           
  5214                           ;Config register CONFIG1 @ 0x300000
  5215                           ;	External Oscillator Selection
  5216                           ;	FEXTOSC = OFF, Oscillator not enabled
  5217                           ;	Reset Oscillator Selection
  5218                           ;	RSTOSC = HFINTOSC_64MHZ, HFINTOSC with HFFRQ = 64 MHz and CDIV = 1:1
  5219  300000                     	org	3145728
  5220  300000  8C                 	db	140
  5221                           
  5222                           ;Config register CONFIG2 @ 0x300001
  5223                           ;	Clock out Enable bit
  5224                           ;	CLKOUTEN = OFF, CLKOUT function is disabled
  5225                           ;	PRLOCKED One-Way Set Enable bit
  5226                           ;	PR1WAY = ON, PRLOCKED bit can be cleared and set only once
  5227                           ;	Clock Switch Enable bit
  5228                           ;	CSWEN = ON, Writing to NOSC and NDIV is allowed
  5229                           ;	Fail-Safe Clock Monitor Enable bit
  5230                           ;	FCMEN = ON, Fail-Safe Clock Monitor enabled
  5231                           ;	Fail-Safe Clock Monitor - Primary XTAL Enable bit
  5232                           ;	FCMENP = ON, Fail-Safe Clock Monitor enabled; timer will flag FSCMP bit and OSFIF inte
      +                          rrupt on EXTOSC failure.
  5233                           ;	Fail-Safe Clock Monitor - Secondary XTAL Enable bit
  5234                           ;	FCMENS = ON, Fail-Safe Clock Monitor enabled; timer will flag FSCMP bit and OSFIF inte
      +                          rrupt on SOSC failure.
  5235  300001                     	org	3145729
  5236  300001  FF                 	db	255
  5237                           
  5238                           ;Config register CONFIG3 @ 0x300002
  5239                           ;	MCLR Enable bit
  5240                           ;	MCLRE = EXTMCLR, If LVP = 0, MCLR pin is MCLR; If LVP = 1, RE3 pin function is MCLR
  5241                           ;	Power-up timer selection bits
  5242                           ;	PWRTS = PWRT_OFF, PWRT is disabled
  5243                           ;	Multi-vector enable bit
  5244                           ;	MVECEN = OFF, Interrupt contoller does not use vector table to prioritze interrupts
  5245                           ;	IVTLOCK bit One-way set enable bit
  5246                           ;	IVT1WAY = ON, IVTLOCKED bit can be cleared and set only once
  5247                           ;	Low Power BOR Enable bit
  5248                           ;	LPBOREN = OFF, Low-Power BOR disabled
  5249                           ;	Brown-out Reset Enable bits
  5250                           ;	BOREN = SBORDIS, Brown-out Reset enabled , SBOREN bit is ignored
  5251  300002                     	org	3145730
  5252  300002  F7                 	db	247
  5253                           
  5254                           ;Config register CONFIG4 @ 0x300003
  5255                           ;	Brown-out Reset Voltage Selection bits
  5256                           ;	BORV = VBOR_1P9, Brown-out Reset Voltage (VBOR) set to 1.9V
  5257                           ;	ZCD Disable bit
  5258                           ;	ZCD = OFF, ZCD module is disabled. ZCD can be enabled by setting the ZCDSEN bit of ZCD
      +                          CON
  5259                           ;	PPSLOCK bit One-Way Set Enable bit
  5260                           ;	PPS1WAY = ON, PPSLOCKED bit can be cleared and set only once; PPS registers remain loc
      +                          ked after one clear/set cycle
  5261                           ;	Stack Full/Underflow Reset Enable bit
  5262                           ;	STVREN = ON, Stack full/underflow will cause Reset
  5263                           ;	Low Voltage Programming Enable bit
  5264                           ;	LVP = ON, Low voltage programming enabled. MCLR/VPP pin function is MCLR. MCLRE config
      +                          uration bit is ignored
  5265                           ;	Extended Instruction Set Enable bit
  5266                           ;	XINST = OFF, Extended Instruction Set and Indexed Addressing Mode disabled
  5267  300003                     	org	3145731
  5268  300003  FF                 	db	255
  5269                           
  5270                           ;Config register CONFIG5 @ 0x300004
  5271                           ;	WDT Period selection bits
  5272                           ;	WDTCPS = WDTCPS_31, Divider ratio 1:65536; software control of WDTPS
  5273                           ;	WDT operating mode
  5274                           ;	WDTE = OFF, WDT Disabled; SWDTEN is ignored
  5275  300004                     	org	3145732
  5276  300004  9F                 	db	159
  5277                           
  5278                           ;Config register CONFIG6 @ 0x300005
  5279                           ;	WDT Window Select bits
  5280                           ;	WDTCWS = WDTCWS_7, window always open (100%); software control; keyed access not requi
      +                          red
  5281                           ;	WDT input clock selector
  5282                           ;	WDTCCS = SC, Software Control
  5283  300005                     	org	3145733
  5284  300005  FF                 	db	255
  5285                           
  5286                           ;Config register CONFIG7 @ 0x300006
  5287                           ;	Boot Block Size selection bits
  5288                           ;	BBSIZE = BBSIZE_512, Boot Block size is 512 words
  5289                           ;	Boot Block enable bit
  5290                           ;	BBEN = OFF, Boot block disabled
  5291                           ;	Storage Area Flash enable bit
  5292                           ;	SAFEN = OFF, SAF disabled
  5293                           ;	Background Debugger
  5294                           ;	DEBUG = OFF, Background Debugger disabled
  5295  300006                     	org	3145734
  5296  300006  FF                 	db	255
  5297                           
  5298                           ;Config register CONFIG8 @ 0x300007
  5299                           ;	Boot Block Write Protection bit
  5300                           ;	WRTB = OFF, Boot Block not Write protected
  5301                           ;	Configuration Register Write Protection bit
  5302                           ;	WRTC = OFF, Configuration registers not Write protected
  5303                           ;	Data EEPROM Write Protection bit
  5304                           ;	WRTD = OFF, Data EEPROM not Write protected
  5305                           ;	SAF Write protection bit
  5306                           ;	WRTSAF = OFF, SAF not Write Protected
  5307                           ;	Application Block write protection bit
  5308                           ;	WRTAPP = OFF, Application Block not write protected
  5309  300007                     	org	3145735
  5310  300007  FF                 	db	255
  5311                           
  5312                           ;Config register CONFIG9 @ 0x300008
  5313                           ;	PFM and Data EEPROM Code Protection bit
  5314                           ;	CP = OFF, PFM and Data EEPROM code protection disabled
  5315  300008                     	org	3145736
  5316  300008  FF                 	db	255
  5317                           
  5318                           ; Padding undefined space
  5319  300009                     	org	3145737
  5320  300009  FF                 	db	255
  5321                           tosu	equ	0x4FF
  5322                           tosh	equ	0x4FE
  5323                           tosl	equ	0x4FD
  5324                           stkptr	equ	0x4FC
  5325                           pclatu	equ	0x4FB
  5326                           pclath	equ	0x4FA
  5327                           pcl	equ	0x4F9
  5328                           tblptru	equ	0x4F8
  5329                           tblptrh	equ	0x4F7
  5330                           tblptrl	equ	0x4F6
  5331                           tablat	equ	0x4F5
  5332                           prodh	equ	0x4F4
  5333                           prodl	equ	0x4F3
  5334                           indf0	equ	0x4EF
  5335                           postinc0	equ	0x4EE
  5336                           postdec0	equ	0x4ED
  5337                           preinc0	equ	0x4EC
  5338                           plusw0	equ	0x4EB
  5339                           fsr0h	equ	0x4EA
  5340                           fsr0l	equ	0x4E9
  5341                           wreg	equ	0x4E8
  5342                           indf1	equ	0x4E7
  5343                           postinc1	equ	0x4E6
  5344                           postdec1	equ	0x4E5
  5345                           preinc1	equ	0x4E4
  5346                           plusw1	equ	0x4E3
  5347                           fsr1h	equ	0x4E2
  5348                           fsr1l	equ	0x4E1
  5349                           bsr	equ	0x4E0
  5350                           indf2	equ	0x4DF
  5351                           postinc2	equ	0x4DE
  5352                           postdec2	equ	0x4DD
  5353                           preinc2	equ	0x4DC
  5354                           plusw2	equ	0x4DB
  5355                           fsr2h	equ	0x4DA
  5356                           fsr2l	equ	0x4D9
  5357                           status	equ	0x4D8

Data Sizes:
    Strings     195
    Constant    0
    Data        0
    BSS         52
    Persistent  16
    Stack       0

Auto Spaces:
    Space          Size  Autos    Used
    COMRAM           95     95      95
    BANK5           160      7      75
    BANK6           256      0       0
    BANK7           256      0       0
    BANK8           256      0       0
    BANK9           256      0       0
    BANK10          256      0       0
    BANK11          256      0       0
    BANK12          256      0       0
    BANK13          256      0       0
    BANK14          256      0       0
    BANK15          256      0       0
    BANK16          256      0       0
    BANK17          256      0       0
    BANK18          256      0       0
    BANK19          256      0       0
    BANK20          256      0       0
    BANK21          254      0       0

Pointer List with Targets:

    strlen@s	PTR const unsigned char  size(2) Largest target is 32
		 -> dbuf(BANK5[32]), 

    strlen@a	PTR const unsigned char  size(2) Largest target is 32
		 -> dbuf(BANK5[32]), 

    fputs@s	PTR const unsigned char  size(2) Largest target is 32
		 -> dbuf(BANK5[32]), 

    fputs@fp	PTR struct _IO_FILE size(2) Largest target is 0
		 -> NULL(NULL[0]), 

    S2300_IO_FILE$buffer	PTR unsigned char  size(2) Largest target is 0

    fputc@fp.buffer	PTR unsigned char  size(2) Largest target is 0

    fputc@fp	PTR struct _IO_FILE size(2) Largest target is 0
		 -> NULL(NULL[0]), 

    vfprintf@ap	PTR PTR void  size(2) Largest target is 2
		 -> printf@ap(BANK5[2]), 

    vfprintf@fp	PTR struct _IO_FILE size(2) Largest target is 0
		 -> NULL(NULL[0]), 

    vfprintf@fmt	PTR const unsigned char  size(2) Largest target is 60
		 -> STR_5(CODE[25]), STR_4(CODE[60]), STR_3(CODE[59]), STR_2(CODE[35]), 
		 -> STR_1(CODE[16]), 

    vfprintf@cfmt	PTR unsigned char  size(2) Largest target is 60
		 -> STR_5(CODE[25]), STR_4(CODE[60]), STR_3(CODE[59]), STR_2(CODE[35]), 
		 -> STR_1(CODE[16]), 

    vfpfcnvrt@fp	PTR struct _IO_FILE size(2) Largest target is 0
		 -> NULL(NULL[0]), 

    vfpfcnvrt@ap	PTR PTR void  size(2) Largest target is 2
		 -> printf@ap(BANK5[2]), 

    vfpfcnvrt@fmt	PTR PTR unsigned char  size(2) Largest target is 2
		 -> vfprintf@cfmt(COMRAM[2]), 

    dtoa@fp	PTR struct _IO_FILE size(2) Largest target is 0
		 -> NULL(NULL[0]), 

    pad@fp	PTR struct _IO_FILE size(2) Largest target is 0
		 -> NULL(NULL[0]), 

    pad@buf	PTR unsigned char  size(2) Largest target is 32
		 -> dbuf(BANK5[32]), 

    printf@fmt	PTR const unsigned char  size(2) Largest target is 60
		 -> STR_5(CODE[25]), STR_4(CODE[60]), STR_3(CODE[59]), STR_2(CODE[35]), 
		 -> STR_1(CODE[16]), 

    printf@ap	PTR void [1] size(2) Largest target is 2
		 -> ?_printf(COMRAM[2]), 

    ADCC_SetADIInterruptHandler@InterruptHandler	PTR FTN()void  size(2) Largest target is 1
		 -> ADCC_DefaultInterruptHandler(), 

    ADCC_ADI_InterruptHandler	PTR FTN()void  size(2) Largest target is 1
		 -> Absolute function(), ADCC_DefaultInterruptHandler(), 

    PWM1_16BIT_Period_SetInterruptHandler@InterruptHandler	PTR FTN()void  size(2) Largest target is 1
		 -> PWM1_16BIT_Period_DefaultInterruptHandler(), 

    PWM1_16BIT_Slice1Output2_SetInterruptHandler@InterruptHandler	PTR FTN()void  size(2) Largest target is 1
		 -> PWM1_16BIT_Slice1Output2_DefaultInterruptHandler(), 

    PWM1_16BIT_Slice1Output1_SetInterruptHandler@InterruptHandler	PTR FTN()void  size(2) Largest target is 1
		 -> PWM1_16BIT_Slice1Output1_DefaultInterruptHandler(), 

    PWM1_16BIT_Period_InterruptHandler	PTR FTN()void  size(2) Largest target is 1
		 -> Absolute function(), PWM1_16BIT_Period_DefaultInterruptHandler(), 

    PWM1_16BIT_Slice1Output2_InterruptHandler	PTR FTN()void  size(2) Largest target is 1
		 -> Absolute function(), PWM1_16BIT_Slice1Output2_DefaultInterruptHandler(), 

    PWM1_16BIT_Slice1Output1_InterruptHandler	PTR FTN()void  size(2) Largest target is 1
		 -> Absolute function(), PWM1_16BIT_Slice1Output1_DefaultInterruptHandler(), 

    UART1_SetErrorHandler@interruptHandler	PTR FTN()void  size(2) Largest target is 1
		 -> UART1_DefaultErrorHandler(), 

    UART1_SetOverrunErrorHandler@interruptHandler	PTR FTN()void  size(2) Largest target is 1
		 -> UART1_DefaultOverrunErrorHandler(), 

    UART1_SetFramingErrorHandler@interruptHandler	PTR FTN()void  size(2) Largest target is 1
		 -> UART1_DefaultFramingErrorHandler(), 

    UART1_ErrorHandler	PTR FTN()void  size(2) Largest target is 1
		 -> Absolute function(), UART1_DefaultErrorHandler(), 

    UART1_OverrunErrorHandler	PTR FTN()void  size(2) Largest target is 1
		 -> Absolute function(), UART1_DefaultOverrunErrorHandler(), 

    UART1_FramingErrorHandler	PTR FTN()void  size(2) Largest target is 1
		 -> Absolute function(), UART1_DefaultFramingErrorHandler(), 


Critical Paths under _main in COMRAM

    _main->_printf
    _TempIndicator_Calc->_printf
    _SYSTEM_Initialize->_TMR1_Initialize
    _UART1_Initialize->_UART1_SetErrorHandler
    _UART1_Initialize->_UART1_SetFramingErrorHandler
    _UART1_Initialize->_UART1_SetOverrunErrorHandler
    _PWM1_16BIT_Initialize->_PWM1_16BIT_Period_SetInterruptHandler
    _PWM1_16BIT_Initialize->_PWM1_16BIT_Slice1Output1_SetInterruptHandler
    _PWM1_16BIT_Initialize->_PWM1_16BIT_Slice1Output2_SetInterruptHandler
    _ADCC_Initialize->_ADCC_SetADIInterruptHandler
    _IntroSplashMessage->_printf
    _printf->_vfprintf
    _vfprintf->_vfpfcnvrt
    _vfpfcnvrt->_dtoa
    _dtoa->_pad
    _pad->_fputs
    _fputs->_fputc
    _fputc->_putch
    _putch->_UART1_Write
    _abs->___aomod

Critical Paths under _INTERRUPT_InterruptManager in COMRAM

    None.

Critical Paths under _main in BANK5

    _main->_TempIndicator_Calc
    _TempIndicator_Calc->_printf
    _IntroSplashMessage->_printf

Critical Paths under _INTERRUPT_InterruptManager in BANK5

    None.

Critical Paths under _main in BANK6

    None.

Critical Paths under _INTERRUPT_InterruptManager in BANK6

    None.

Critical Paths under _main in BANK7

    None.

Critical Paths under _INTERRUPT_InterruptManager in BANK7

    None.

Critical Paths under _main in BANK8

    None.

Critical Paths under _INTERRUPT_InterruptManager in BANK8

    None.

Critical Paths under _main in BANK9

    None.

Critical Paths under _INTERRUPT_InterruptManager in BANK9

    None.

Critical Paths under _main in BANK10

    None.

Critical Paths under _INTERRUPT_InterruptManager in BANK10

    None.

Critical Paths under _main in BANK11

    None.

Critical Paths under _INTERRUPT_InterruptManager in BANK11

    None.

Critical Paths under _main in BANK12

    None.

Critical Paths under _INTERRUPT_InterruptManager in BANK12

    None.

Critical Paths under _main in BANK13

    None.

Critical Paths under _INTERRUPT_InterruptManager in BANK13

    None.

Critical Paths under _main in BANK14

    None.

Critical Paths under _INTERRUPT_InterruptManager in BANK14

    None.

Critical Paths under _main in BANK15

    None.

Critical Paths under _INTERRUPT_InterruptManager in BANK15

    None.

Critical Paths under _main in BANK16

    None.

Critical Paths under _INTERRUPT_InterruptManager in BANK16

    None.

Critical Paths under _main in BANK17

    None.

Critical Paths under _INTERRUPT_InterruptManager in BANK17

    None.

Critical Paths under _main in BANK18

    None.

Critical Paths under _INTERRUPT_InterruptManager in BANK18

    None.

Critical Paths under _main in BANK19

    None.

Critical Paths under _INTERRUPT_InterruptManager in BANK19

    None.

Critical Paths under _main in BANK20

    None.

Critical Paths under _INTERRUPT_InterruptManager in BANK20

    None.

Critical Paths under _main in BANK21

    None.

Critical Paths under _INTERRUPT_InterruptManager in BANK21

    None.

Call Graph Tables:

 ---------------------------------------------------------------------------------
 (Depth) Function   	        Calls       Base Space   Used Autos Params    Refs
 ---------------------------------------------------------------------------------
 (0) _main                                                 1     1      0   21217
                                             94 COMRAM     1     1      0
                 _IntroSplashMessage
                  _SYSTEM_Initialize
                 _TempIndicator_Calc
                             _printf
 ---------------------------------------------------------------------------------
 (1) _TempIndicator_Calc                                   3     3      0    7585
                                              4 BANK5      3     3      0
           _ADCC_GetConversionResult
                     _FLASH_ReadWord
                            ___atdiv
                             ___tmul
                             _printf
 ---------------------------------------------------------------------------------
 (2) ___tmul                                               9     3      6     244
                                              0 COMRAM     9     3      6
 ---------------------------------------------------------------------------------
 (2) ___atdiv                                             11     5      6     604
                                              0 COMRAM    11     5      6
 ---------------------------------------------------------------------------------
 (2) _FLASH_ReadWord                                       8     4      4     264
                                              0 COMRAM     8     4      4
 ---------------------------------------------------------------------------------
 (2) _ADCC_GetConversionResult                             4     2      2       0
                                              0 COMRAM     4     2      2
 ---------------------------------------------------------------------------------
 (1) _SYSTEM_Initialize                                    0     0      0     686
                    _ADCC_Initialize
                    _CLC1_Initialize
                     _FVR_Initialize
               _INTERRUPT_Initialize
              _OSCILLATOR_Initialize
             _PIN_MANAGER_Initialize
                     _PMD_Initialize
              _PWM1_16BIT_Initialize
                    _TMR1_Initialize
                    _TMR2_Initialize
                   _UART1_Initialize
 ---------------------------------------------------------------------------------
 (2) _UART1_Initialize                                     0     0      0     294
              _UART1_SetErrorHandler
       _UART1_SetFramingErrorHandler
       _UART1_SetOverrunErrorHandler
 ---------------------------------------------------------------------------------
 (3) _UART1_SetOverrunErrorHandler                         2     0      2      98
                                              0 COMRAM     2     0      2
 ---------------------------------------------------------------------------------
 (3) _UART1_SetFramingErrorHandler                         2     0      2      98
                                              0 COMRAM     2     0      2
 ---------------------------------------------------------------------------------
 (3) _UART1_SetErrorHandler                                2     0      2      98
                                              0 COMRAM     2     0      2
 ---------------------------------------------------------------------------------
 (2) _TMR2_Initialize                                      0     0      0       0
 ---------------------------------------------------------------------------------
 (2) _TMR1_Initialize                                      2     2      0       0
                                              0 COMRAM     2     2      0
 ---------------------------------------------------------------------------------
 (2) _PWM1_16BIT_Initialize                                0     0      0     294
_PWM1_16BIT_Period_SetInterruptHandl
_PWM1_16BIT_Slice1Output1_SetInterru
_PWM1_16BIT_Slice1Output2_SetInterru
 ---------------------------------------------------------------------------------
 (3) _PWM1_16BIT_Slice1Output2_SetInterruptHandler         2     0      2      98
                                              0 COMRAM     2     0      2
 ---------------------------------------------------------------------------------
 (3) _PWM1_16BIT_Slice1Output1_SetInterruptHandler         2     0      2      98
                                              0 COMRAM     2     0      2
 ---------------------------------------------------------------------------------
 (3) _PWM1_16BIT_Period_SetInterruptHandler                2     0      2      98
                                              0 COMRAM     2     0      2
 ---------------------------------------------------------------------------------
 (2) _PMD_Initialize                                       0     0      0       0
 ---------------------------------------------------------------------------------
 (2) _PIN_MANAGER_Initialize                               0     0      0       0
 ---------------------------------------------------------------------------------
 (2) _OSCILLATOR_Initialize                                0     0      0       0
 ---------------------------------------------------------------------------------
 (2) _INTERRUPT_Initialize                                 0     0      0       0
 ---------------------------------------------------------------------------------
 (2) _FVR_Initialize                                       0     0      0       0
 ---------------------------------------------------------------------------------
 (2) _CLC1_Initialize                                      0     0      0       0
 ---------------------------------------------------------------------------------
 (2) _ADCC_Initialize                                      0     0      0      98
        _ADCC_SetADIInterruptHandler
 ---------------------------------------------------------------------------------
 (3) _ADCC_SetADIInterruptHandler                          2     0      2      98
                                              0 COMRAM     2     0      2
 ---------------------------------------------------------------------------------
 (1) _IntroSplashMessage                                   0     0      0    6473
                             _printf
 ---------------------------------------------------------------------------------
 (1) _printf                                               9     4      5    6473
                                             89 COMRAM     5     0      5
                                              0 BANK5      4     4      0
                           _vfprintf
 ---------------------------------------------------------------------------------
 (2) _vfprintf                                             8     2      6    6039
                                             81 COMRAM     8     2      6
                          _vfpfcnvrt
 ---------------------------------------------------------------------------------
 (3) _vfpfcnvrt                                           42    36      6    5685
                                             65 COMRAM    16    10      6
                               _dtoa
                              _fputc
 ---------------------------------------------------------------------------------
 (4) _dtoa                                                36    26     10    4314
                                             29 COMRAM    36    26     10
                            ___aodiv
                            ___aomod
                                _abs
                                _pad
 ---------------------------------------------------------------------------------
 (5) _pad                                                 11     5      6    2665
                                             18 COMRAM    11     5      6
                              _fputc
                              _fputs
                             _strlen
 ---------------------------------------------------------------------------------
 (6) _strlen                                               4     2      2     166
                                              0 COMRAM     4     2      2
 ---------------------------------------------------------------------------------
 (6) _fputs                                                7     3      4    1213
                                             11 COMRAM     7     3      4
                              _fputc
 ---------------------------------------------------------------------------------
 (4) _fputc                                                9     5      4     812
                                              2 COMRAM     9     5      4
                              _putch
 ---------------------------------------------------------------------------------
 (5) _putch                                                1     1      0      44
                                              1 COMRAM     1     1      0
                        _UART1_Write
 ---------------------------------------------------------------------------------
 (6) _UART1_Write                                          1     1      0      22
                                              0 COMRAM     1     1      0
 ---------------------------------------------------------------------------------
 (5) _abs                                                  4     2      2     142
                                             18 COMRAM     4     2      2
                            ___aomod (ARG)
 ---------------------------------------------------------------------------------
 (5) ___aomod                                             18     2     16     448
                                              0 COMRAM    18     2     16
 ---------------------------------------------------------------------------------
 (5) ___aodiv                                             26    10     16     452
                                              0 COMRAM    26    10     16
 ---------------------------------------------------------------------------------
 Estimated maximum stack depth 6
 ---------------------------------------------------------------------------------
 (Depth) Function   	        Calls       Base Space   Used Autos Params    Refs
 ---------------------------------------------------------------------------------
 (11) _INTERRUPT_InterruptManager                          0     0      0       0
                           _ADCC_ISR
                           _CLC1_ISR
 ---------------------------------------------------------------------------------
 (12) _CLC1_ISR                                            0     0      0       0
 ---------------------------------------------------------------------------------
 (12) _ADCC_ISR                                            0     0      0       0
                   Absolute function *
       _ADCC_DefaultInterruptHandler *
 ---------------------------------------------------------------------------------
 (13) _ADCC_DefaultInterruptHandler                        0     0      0       0
 ---------------------------------------------------------------------------------
 (13) Absolute function(Fake)                              0     0      0       0
 ---------------------------------------------------------------------------------
 Estimated maximum stack depth 13
 ---------------------------------------------------------------------------------

 Call Graph Graphs:

 _main (ROOT)
   _IntroSplashMessage
     _printf
       _vfprintf
         _vfpfcnvrt
           _dtoa
             ___aodiv
             ___aomod
             _abs
               ___aomod (ARG)
             _pad
               _fputc
                 _putch
                   _UART1_Write
               _fputs
                 _fputc
                   _putch
                     _UART1_Write
               _strlen
           _fputc
             _putch
               _UART1_Write
   _SYSTEM_Initialize
     _ADCC_Initialize
       _ADCC_SetADIInterruptHandler
     _CLC1_Initialize
     _FVR_Initialize
     _INTERRUPT_Initialize
     _OSCILLATOR_Initialize
     _PIN_MANAGER_Initialize
     _PMD_Initialize
     _PWM1_16BIT_Initialize
       _PWM1_16BIT_Period_SetInterruptHandler
       _PWM1_16BIT_Slice1Output1_SetInterruptHandler
       _PWM1_16BIT_Slice1Output2_SetInterruptHandler
     _TMR1_Initialize
     _TMR2_Initialize
     _UART1_Initialize
       _UART1_SetErrorHandler
       _UART1_SetFramingErrorHandler
       _UART1_SetOverrunErrorHandler
   _TempIndicator_Calc
     _ADCC_GetConversionResult
     _FLASH_ReadWord
     ___atdiv
     ___tmul
     _printf
       _vfprintf
         _vfpfcnvrt
           _dtoa
             ___aodiv
             ___aomod
             _abs
               ___aomod (ARG)
             _pad
               _fputc
                 _putch
                   _UART1_Write
               _fputs
                 _fputc
                   _putch
                     _UART1_Write
               _strlen
           _fputc
             _putch
               _UART1_Write
   _printf
     _vfprintf
       _vfpfcnvrt
         _dtoa
           ___aodiv
           ___aomod
           _abs
             ___aomod (ARG)
           _pad
             _fputc
               _putch
                 _UART1_Write
             _fputs
               _fputc
                 _putch
                   _UART1_Write
             _strlen
         _fputc
           _putch
             _UART1_Write

 _INTERRUPT_InterruptManager (ROOT)
   _ADCC_ISR
     Absolute function(Fake) *
     _ADCC_DefaultInterruptHandler *
   _CLC1_ISR

 Address spaces:
Name               Size   Autos  Total    Cost      Usage
BIGRAMl            FFF      0       0      40        0.0%
EEDATA             400      0       0       0        0.0%
BITBANK20          100      0       0      35        0.0%
BANK20             100      0       0      36        0.0%
BITBANK19          100      0       0      33        0.0%
BANK19             100      0       0      34        0.0%
BITBANK18          100      0       0      31        0.0%
BANK18             100      0       0      32        0.0%
BITBANK17          100      0       0      29        0.0%
BANK17             100      0       0      30        0.0%
BITBANK16          100      0       0      26        0.0%
BANK16             100      0       0      27        0.0%
BITBANK15          100      0       0      24        0.0%
BANK15             100      0       0      25        0.0%
BITBANK14          100      0       0      22        0.0%
BANK14             100      0       0      23        0.0%
BITBANK13          100      0       0      20        0.0%
BANK13             100      0       0      21        0.0%
BITBANK12          100      0       0      18        0.0%
BANK12             100      0       0      19        0.0%
BITBANK11          100      0       0      16        0.0%
BANK11             100      0       0      17        0.0%
BITBANK10          100      0       0      14        0.0%
BANK10             100      0       0      15        0.0%
BITBANK9           100      0       0      12        0.0%
BANK9              100      0       0      13        0.0%
BITBANK8           100      0       0      10        0.0%
BANK8              100      0       0      11        0.0%
BITBANK7           100      0       0       8        0.0%
BANK7              100      0       0       9        0.0%
BITBANK6           100      0       0       6        0.0%
BANK6              100      0       0       7        0.0%
BIGRAMh             FE      0       0      39        0.0%
BITBANK21           FE      0       0      37        0.0%
BANK21              FE      0       0      38        0.0%
BITBANK5            A0      0       0       4        0.0%
BANK5               A0      7      4B       5       46.9%
BITCOMRAM           5F      0       0       0        0.0%
COMRAM              5F     5F      5F       1      100.0%
BITSFR_5             0      0       0     200        0.0%
SFR_5                0      0       0     200        0.0%
BITSFR_4             0      0       0     200        0.0%
SFR_4                0      0       0     200        0.0%
BITSFR_3             0      0       0     200        0.0%
SFR_3                0      0       0     200        0.0%
BITSFR_2             0      0       0     200        0.0%
SFR_2                0      0       0     200        0.0%
BITSFR_1             0      0       0     200        0.0%
SFR_1                0      0       0     200        0.0%
BITSFR               0      0       0     200        0.0%
SFR                  0      0       0     200        0.0%
STACK                0      0       0       2        0.0%
NULL                 0      0       0       0        0.0%
ABS                  0      0      AA      28        0.0%
DATA                 0      0      AA       3        0.0%
CODE                 0      0       0       0        0.0%


Microchip Technology PIC18 Macro Assembler V2.20 build 20200408173844 
Symbol Table                                                                                   Thu Sep 10 11:03:21 2020

                                                          l61 22B4  
                                            ___atdiv@quotient 0509  
                                      __end_of_FVR_Initialize 2812  
                                                         l127 23F8  
                                                         l153 2784  
                                                         l233 26BC  
                                                         l162 27FE  
                                                         l156 2798  
                                                         l236 2780  
                                                         l180 27CC  
                                                         l422 262E  
                                                         l174 27C2  
                                                         l239 2764  
                                                         l177 27B8  
                                                         l339 2322  
                                                         l516 281C  
                                                         l372 27E0  
                                                         l375 27D6  
                                                         l455 2748  
                                                         l704 27F4  
                                                         l616 238E  
                                                         l625 27AE  
                                                         l378 27EA  
                                                         l730 25BC  
                                                         l826 265E  
                                                         l780 1F82  
                                                         l777 270A  
                                                         l873 24AC  
                                                         l874 24B8  
                                                         l787 2810  
                                                         l982 1D26  
                                                         l995 1E8A  
                                                         _PR2 00031D  
                                                         u960 2792  
                                                         u961 278E  
                                                         u970 2144  
                                                         u971 2140  
                                                         u980 2156  
                                                         u981 2152  
                                                         u990 217E  
                                                         u991 217A  
                                             _timer1ReloadVal 0594  
                                                         _abs 2544  
                                                         _pad 206C  
                                     __size_of_PMD_Initialize 001C  
                                             _TMR2_Initialize 272C  
                                                         tosl 0004FD  
                                                         wreg 0004E8  
                                ?_ADCC_SetADIInterruptHandler 0501  
                                                        ?_abs 0513  
                                                        l1064 2034  
                                                        l3001 1EF8  
                                                        l1067 206A  
                                                        l3003 1F20  
                                                        l3005 1F42  
                                                        l3007 1F6A  
                                                        l3041 21CE  
                                                        l1611 1B9E  
                                                        l3051 2210  
                                                        l3043 21D4  
                                                        l1604 19A8  
                                                        l3053 2220  
                                                        l3045 21D8  
                                                        l3037 21C8  
                                                        l1622 257A  
                                                        l3055 2230  
                                                        l3047 21EA  
                                                        l3039 21CC  
                                                        l2601 1C9C  
                                                        l1625 2582  
                                                        l1617 2458  
                                                        l3057 2234  
                                                        l3049 21EE  
                                                        l1618 2460  
                                                        l1546 26E4  
                                                        l2611 1CE6  
                                                        l2603 1CBC  
                                                        l1651 25F6  
                                                        l2613 1D06  
                                                        l2605 1CBE  
                                                        l2621 1D3A  
                                                        l1637 21C6  
                                                        l2541 2132  
                                                        l1645 2542  
                                                        l1573 20B2  
                                                        l2701 17A4  
                                                        l2607 1CD0  
                                                        l2631 1DAA  
                                                        l2623 1D5A  
                                                        l2535 2784  
                                                        l2551 21B4  
                                                        l2543 2144  
                                                        l2711 1840  
                                                        l2703 17AC  
                                                        l1576 20F4  
                                                        l1584 1766  
                                                        l2609 1CD6  
                                                        l2641 1E22  
                                                        l2633 1DB2  
                                                        l2625 1D5E  
                                                        l2617 1D28  
                                                        l2537 2792  
                                                        l2545 2156  
                                                        l2561 2522  
                                                        l2721 1910  
                                                        l2705 17B2  
                                                        l2713 18A4  
                                                        l2801 2410  
                                                        l1578 2130  
                                                        l1586 176E  
                                                        l2643 1E34  
                                                        l2635 1DC6  
                                                        l2627 1D6C  
                                                        l2619 1D2C  
                                                        l2539 27F8  
                                                        l2547 2160  
                                                        l2555 2500  
                                                        l2563 25BE  
                                                        l2731 195A  
                                                        l2715 18BE  
                                                        l2723 1920  
                                                        l2707 1834  
                                                        l2803 2436  
                                                        l2811 2390  
                                                        l2581 1BD6  
                                                        l2573 1BA0  
                                                        l2637 1DD4  
                                                        l2645 1E3A  
                                                        l2629 1D8C  
                                                        l2549 217E  
                                                        l2557 250C  
                                                        l2565 25CA  
                                                        l2661 20AA  
                                                        l2653 206C  
                                                        l2733 1966  
                                                        l2725 1932  
                                                        l2717 18DC  
                                                        l2709 183A  
                                                        l2741 19AA  
                                                        l2821 281A  
                                                        l2805 2240  
                                                        l2813 23CE  
                                                        l2901 2488  
                                                        l2591 1C32  
                                                        l2583 1BE4  
                                                        l2575 1BA4  
                                                        l2647 1E4A  
                                                        l2639 1E02  
                                                        l2559 251E  
                                                        l2567 25CE  
                                                        l2671 2118  
                                                        l2663 20BE  
                                                        l2655 207C  
                                                        l2735 196E  
                                                        l2727 1942  
                                                        l2719 18F6  
                                                        l2751 1A26  
                                                        l2743 19D4  
                                                        l2831 262A  
                                                        l2807 2286  
                                                        l2823 274A  
                                                        l2815 23DA  
                                                        l2911 1FA2  
                                                        l2903 2498  
                                                        l2593 1C3A  
                                                        l2585 1C04  
                                                        l2577 1BB2  
                                                        l2649 1E6A  
                                                        l2569 25EA  
                                                        l2665 20D2  
                                                        l2657 2090  
                                                        l2729 1948  
                                                        l2737 1980  
                                                        l2681 16E6  
                                                        l2761 1B0E  
                                                        l2753 1A50  
                                                        l2745 19E6  
                                                        l2841 2382  
                                                        l2833 262C  
                                                        l2825 2766  
                                                        l2809 2290  
                                                        l2817 23E6  
                                                        l2921 1FD0  
                                                        l2913 1FA6  
                                                        l2905 1F84  
                                                        l2595 1C4E  
                                                        l2587 1C08  
                                                        l2579 1BD2  
                                                        l2675 2544  
                                                        l2667 20D6  
                                                        l2659 209E  
                                                        l2691 175A  
                                                        l2683 170E  
                                                        l2771 1B52  
                                                        l2763 1B20  
                                                        l2755 1AAC  
                                                        l2747 19F8  
                                                        l2835 2324  
                                                        l2827 280A  
                                                        l2851 259C  
                                                        l2843 272C  
                                                        l2819 23F2  
                                                        l2931 200C  
                                                        l2923 1FE4  
                                                        l2915 1FB4  
                                                        l2907 1F88  
                                                        l2597 1C5C  
                                                        l2589 1C14  
                                                        l2677 255E  
                                                        l2669 2104  
                                                        l2693 1776  
                                                        l2685 172E  
                                                        l2765 1B34  
                                                        l2749 19FC  
                                                        l2837 237E  
                                                        l2829 25F8  
                                                        l2861 22F2  
                                                        l2853 25B6  
                                                        l2845 2742  
                                                        l2941 2052  
                                                        l2933 2026  
                                                        l2925 1FEC  
                                                        l2917 1FC0  
                                                        l2909 1F96  
                                                        ?_pad 0513  
                                                        l2599 1C6E  
                                                        l2695 1788  
                                                        l2687 173E  
                                                        l2679 16C6  
                                                        l2759 1AE4  
                                                        l2775 1B5E  
                                                        l2839 2380  
                                                        l2791 27CE  
                                                        l2871 2306  
                                                        l2863 22F4  
                                                        l2855 22B6  
                                                        l2847 2584  
                                                        l2783 27BA  
                                                        l2943 205E  
                                                        l2935 2032  
                                                        l2927 1FF6  
                                                        l2919 1FC4  
                                                        l2697 1796  
                                                        l2689 1740  
                                                        l2777 1B88  
                                                        l2769 1B40  
                                                        l2793 27E2  
                                                        l2873 2312  
                                                        l2865 22F6  
                                                        l2857 22EE  
                                                        l2849 259A  
                                                        l2785 27B0  
                                                        l2937 203C  
                                                        l2929 2004  
                                                        l2699 179C  
                                                        l2795 27EC  
                                                        l2875 231E  
                                                        l2867 22F8  
                                                        l2859 22F0  
                                                        l2787 27C4  
                                                        l2971 2690  
                                                        l2883 279A  
                                                        l2891 2652  
                                                        l2939 2042  
                                                        l2797 23FA  
                                                        l2877 26BE  
                                                        l2789 27D8  
                                                        l2869 22FA  
                                                        l2981 26A4  
                                                        l2973 2694  
                                                        l2799 2402  
                                                        l2879 26C8  
                                                        l2991 26B8  
                                                        l2983 26A8  
                                                        l2975 2698  
                                                        l2895 2462  
                                                        l2993 26E6  
                                                        l2985 26AC  
                                                        l2977 269C  
                                                        l2889 2630  
                                                        l2897 246E  
                                                        l2987 26B0  
                                                        l2979 26A0  
                                                        l2899 247C  
                                                        l2995 1E8C  
                                                        l2989 26B4  
                                                        l2997 1EC4  
                                                        l2999 1ED0  
                                                        STR_1 16B4  
                                                        STR_2 1678  
                                                        STR_3 163D  
                                                        STR_4 1601  
                                                        STR_5 169B  
                                                        u1000 21B4  
                                                        u1001 21B0  
                                                        u1010 2542  
                                                        u1011 253E  
                                                        u1100 1D3A  
                                                        u1020 25EA  
                                                        u1101 1D36  
                                                        u1021 25E6  
                                                        u1030 1BB2  
                                                        u1110 1D6C  
                                                        u1031 1BAE  
                                                        u1111 1D68  
                                                        u1040 1BE4  
                                                        u1120 1DAA  
                                                        u1200 255E  
                                                        u1041 1BE0  
                                                        u1121 1DA6  
                                                        u1201 255A  
                                                        u1130 1DD4  
                                                        u1210 16F6  
                                                        u1051 1C0E  
                                                        u1131 1DD0  
                                                        u1211 16F0  
                                                        u1060 1C32  
                                                        u1140 1E02  
                                                        u1300 18F6  
                                                        u1220 16F8  
                                                        u1061 1C2E  
                                                        u1141 1DFE  
                                                        u1301 18F2  
                                                        u1070 1C5C  
                                                        u1150 1E4A  
                                                        u1310 1910  
                                                        u1230 170E  
                                                        u1071 1C58  
                                                        u1151 1E46  
                                                        u1311 190C  
                                                        u1231 170A  
                                                        u1080 1C9C  
                                                        u1160 207C  
                                                        u1320 1920  
                                                        u1240 173E  
                                                        u1400 2458  
                                                        u1081 1C98  
                                                        u1161 2078  
                                                        u1321 191C  
                                                        u1241 173A  
                                                        u1401 2454  
                                                        u1090 1CE6  
                                                        u1170 209E  
                                                        u1330 1932  
                                                        u1250 175A  
                                                        u1410 247C  
                                                        u1091 1CE2  
                                                        u1171 209A  
                                                        u1331 192E  
                                                        u1251 1756  
                                                        u1411 2478  
                                                        u1180 20F4  
                                                        u1340 1942  
                                                        u1260 1788  
                                                        u1420 24AC  
                                                        u1181 20F0  
                                                        u1341 193E  
                                                        u1261 1784  
                                                        u1421 24A8  
                                                        _LATA 0004BE  
                                                        u1190 2104  
                                                        u1350 195A  
                                                        u1270 1796  
                                                        u1430 1F96  
                                                        _LATB 0004BF  
                                                        u1191 2100  
                                                        u1351 1956  
                                                        u1271 1792  
                                                        u1431 1F92  
                                                        _LATC 0004C0  
                                                        u1280 18BE  
                                                        u1360 19D4  
                                                        u1440 1FB4  
                                                        u1600 21FE  
                                                        u1281 18BA  
                                                        u1361 19D0  
                                                        u1441 1FB0  
                                                        u1601 21F8  
                                                        u1290 18DC  
                                                        u1370 1A26  
                                                        u1450 1FE4  
                                                        u1610 2230  
                                                        u1291 18D8  
                                                        u1371 1A22  
                                                        u1451 1FE0  
                                                        u1611 222C  
                                                        u1380 1A50  
                                                        u1460 2004  
                                                        u1381 1A4C  
                                                        u1461 2000  
                                                        u1390 1B0E  
                                                        u1470 2026  
                                                        u1606 2200  
                                                        u1391 1B0A  
                                                        u1471 2022  
                                                        u1480 2052  
                                                        u1481 204E  
                                                        _T2PR 00031D  
                                                        u1590 21EA  
                                                        u1591 21E6  
                                                        _PMD0 000063  
                                                        _PMD1 000064  
                                                        _PMD2 000065  
                                                        _PMD3 000066  
                                                        _PMD4 000067  
                                                        _PMD5 000068  
                                                        _TMR2 00031C  
                                                        _WPUA 000401  
                                                        _WPUB 000409  
                                                        _WPUC 000411  
                                            __end_of_ADCC_ISR 2690  
                                                        abs@a 0513  
                                                        _dbuf 0574  
                                                        _gain 056F  
                                                        _main 21C8  
                                                        _dtoa 16C6  
                                                        _prec 0567  
                                                        _nout 0563  
                                                        pad@i 051A  
                                                        pad@p 0517  
                                                        fsr1h 0004E2  
                                                        fsr2h 0004DA  
                                                        indf2 0004DF  
                                                        fsr1l 0004E1  
                                                        pad@w 051C  
                                                        fsr2l 0004D9  
                                            __end_of_CLC1_ISR 280A  
                                                        start 001A  
                                                ___param_bank 000000  
                                                       ??_abs 0515  
                                                       ??_pad 0519  
                                 __size_of_TempIndicator_Calc 00F8  
                                             ?_FVR_Initialize 0501  
                              __size_of_OSCILLATOR_Initialize 001C  
                               __end_of_OSCILLATOR_Initialize 2782  
                                             __end_of___aodiv 1D28  
                                                       _ADCAP 0003F0  
                                                       _ADACT 0003F9  
                                                       ?_main 0501  
                                                       ?_dtoa 051E  
                                                       _ADCLK 0003FA  
                                             __end_of___aomod 1E8C  
                                                       _ADCNT 0003E6  
                                             __end_of___atdiv 206C  
                                                       _ADPCH 0003EC  
                                                       _ADREF 0003F8  
                                                       _ADRPT 0003E7  
                                                       _T1CLK 000317  
                                                       _T1CON 000314  
                                                       _U1P1H 0002A6  
                                                       _U1P2H 0002A8  
                                                       _U1P1L 0002A5  
                                                       _U1P3H 0002AA  
                                                       _T2CON 00031E  
                                                       _U1P2L 0002A7  
                                                       _U1P3L 0002A9  
                                                       _T2HLT 00031F  
                                                       _T2TMR 00031C  
                                                       _U1UIR 0002B1  
                                                       _T2RST 000321  
                                                       _U1RXB 0002A1  
                                                       _U1TXB 0002A3  
                                                       i2l425 2808  
                                                       i2l521 24DE  
                                                       i2l701 268E  
                                                       i2l525 24FE  
                                                       i2l707 2818  
                                      ?_PWM1_16BIT_Initialize 0501  
                                                       _OSCEN 0000B3  
                                                vfpfcnvrt@fmt 0544  
                                                       _TMR1H 000313  
                                                       _TMR1L 000312  
                                                       _TRISA 0004C6  
                                                       _TRISB 0004C7  
                                                       _TRISC 0004C8  
            _PWM1_16BIT_Slice1Output1_DefaultInterruptHandler 000000  
                                                       _flags 0569  
                                                       _fputc 2132  
                                                       _fputs 2500  
                                 __size_of_IntroSplashMessage 0026  
                                                       _tempC 0560  
                                                       pad@fp 0513  
                                                       _width 0565  
                                                       _putch 27F6  
                                                       dtoa@d 0520  
                                                       dtoa@i 0540  
                                                       dtoa@n 0538  
                                                       dtoa@p 0532  
                                                       dtoa@s 0536  
                                                       dtoa@w 0534  
                                     __end_of_TMR1_Initialize 25BE  
                                                       pclath 0004FA  
                                                       tablat 0004F5  
                                                       status 0004D8  
                            _UART1_DefaultFramingErrorHandler 000000  
                                             __initialization 270C  
                                                __end_of_main 2240  
                                                __end_of_dtoa 19AA  
                                     __end_of_TMR2_Initialize 274A  
                                 ?_INTERRUPT_InterruptManager 0501  
                                                ?_UART1_Write 0501  
                                                      ??_main 055F  
                                                      ??_dtoa 0528  
                                               __activetblptr 000003  
                                     __size_of_FLASH_ReadWord 0030  
               __end_of_PWM1_16BIT_Period_SetInterruptHandler 27EC  
              __size_of_PWM1_16BIT_Period_SetInterruptHandler 000A  
                     ??_PWM1_16BIT_Period_SetInterruptHandler 0503  
                      ?_PWM1_16BIT_Period_SetInterruptHandler 0501  
                       _PWM1_16BIT_Period_SetInterruptHandler 27E2  
                                            _UART1_Initialize 2390  
                                                      _ADACCH 0003E4  
                                                      _ADACCL 0003E3  
                                                      _ADACCU 0003E5  
                                                      _ADACQH 0003EF  
                                                      _ADACQL 0003EE  
                                                      _ADCON0 0003F3  
                                                      _ADCON1 0003F4  
                                                      _ADCON2 0003F5  
                                                      _ADCON3 0003F6  
                                                      _ADERRH 0003DE  
                                                      _ADERRL 0003DD  
                                                      ?_fputc 0503  
                                                      _ADLTHH 0003DA  
                                                      _ACTCON 0000AC  
                                                      _ADLTHL 0003D9  
                                                      ?_fputs 050C  
                                                      _ADRESH 0003EB  
                                                      _ADRESL 0003EA  
                                                      _ADPREH 0003F2  
                                                      _ADPREL 0003F1  
                                                      _ADSTAT 0003F7  
                                                      _ADUTHH 0003DC  
                                                      _ADUTHL 0003DB  
                                                      _ANSELA 000400  
                                                      ?_putch 0501  
                                                      _ANSELB 000408  
                                                      _ANSELC 000410  
                                                      _T1GATE 000316  
                                                      _T1GCON 000315  
                                                      _U1CON0 0002AB  
                                                      _U1CON1 0002AC  
                                                      _U1CON2 0002AD  
                                                      _U1BRGH 0002AF  
                                                      _U1FIFO 0002B0  
                                                      _U1BRGL 0002AE  
                                                      _RA4PPS 000205  
                                                      _RA5PPS 000206  
                                                      _RB7PPS 000210  
                                                      _ODCONA 000402  
                                                      _ODCONB 00040A  
                                                      _ODCONC 000412  
                                                      i2l3011 2802  
                                                      i2l3013 2660  
                                                      i2l3015 2662  
                                                      i2l3017 2676  
                                                      i2l3009 2800  
                                                      i2l3091 24FA  
                                                      i2l3083 24BA  
                                                      i2l3085 24C8  
                                                      i2l3087 24D6  
                                                      i2l3089 24EC  
                                                      _INLVLA 000404  
                                                      _INLVLB 00040C  
                                                      _INLVLC 000414  
                                                      i2l2887 2812  
                                                      _TABLAT 0004F5  
                                                      _FVRCON 0003D7  
                                                      _OSCFRQ 0000B1  
                                       _UART1_SetErrorHandler 27C4  
                                  ??_ADCC_GetConversionResult 0503  
                                                vfprintf@cfmt 0558  
                        __size_of_ADCC_SetADIInterruptHandler 000A  
                                                   ??___aodiv 0511  
                                                      ___tmul 2462  
                                                   ??___aomod 0511  
                                                   ??___atdiv 0507  
                                                      _offset 056D  
                                                      clear_0 2712  
                                                      _printf 26BE  
                                                      pad@buf 0515  
                                                      dtoa@fp 051E  
                                                   ?_ADCC_ISR 0501  
                                                      _strlen 25BE  
                                             _ADCC_Initialize 2324  
                                                      fputc@c 0503  
                                              _PMD_Initialize 274A  
                                                      fputs@c 0510  
                                                      fputs@i 0511  
                                     FLASH_ReadWord@flashAddr 0501  
                                                      fputs@s 050C  
                                                   ?_CLC1_ISR 0501  
                                                __mediumconst 0000  
                                                      tblptrh 0004F7  
                                                      tblptrl 0004F6  
                                                      tblptru 0004F8  
                                            __end_of_vfprintf 2462  
                 ADCC_SetADIInterruptHandler@InterruptHandler 0501  
       PWM1_16BIT_Period_SetInterruptHandler@InterruptHandler 0501  
PWM1_16BIT_Slice1Output2_SetInterruptHandler@InterruptHandler 0501  
PWM1_16BIT_Slice1Output1_SetInterruptHandler@InterruptHandler 0501  
                        __end_of_UART1_SetOverrunErrorHandler 27BA  
                       __size_of_UART1_SetOverrunErrorHandler 000A  
                                _UART1_SetOverrunErrorHandler 27B0  
                                             _CLC1_Initialize 25F8  
                                   _UART1_DefaultErrorHandler 000000  
                               __size_of_INTERRUPT_Initialize 0004  
                                            ?_TMR1_Initialize 0501  
                                           _SYSTEM_Initialize 2690  
                                                  __accesstop 0560  
                                     __end_of__initialization 2726  
                                     FLASH_ReadWord@readWordH 0508  
                                     FLASH_ReadWord@readWordL 0507  
                                          ?_SYSTEM_Initialize 0501  
                                               ___rparam_used 000001  
                                              __pcstackCOMRAM 0501  
                                         ??_SYSTEM_Initialize 0503  
                                               __end_of_fputc 21C8  
                                               __end_of_fputs 2544  
                                               __end_of_putch 2800  
                                            ?_TMR2_Initialize 0501  
                                      __end_of_PMD_Initialize 2766  
                                                  ??_ADCC_ISR 0501  
                                                  ??_CLC1_ISR 0501  
                                   _UART1_FramingErrorHandler 05A2  
                                                     ??_fputc 0507  
                                   __end_of_SYSTEM_Initialize 26BE  
                                                     ??_fputs 0510  
                                                     ??_putch 0502  
                                                  __pbssBANK5 0560  
                               ?_UART1_SetOverrunErrorHandler 0501  
                                      ?_UART1_SetErrorHandler 0501  
                                                     IVTBASEH 00045E  
                                                     IVTBASEL 00045D  
                                                     IVTBASEU 00045F  
                                            ??_FVR_Initialize 0501  
                                                     ?___tmul 0501  
                                     __end_of_ADCC_Initialize 2390  
                                                     _ADFLTRH 0003E2  
                                                     _ADFLTRL 0003E1  
                                     ??_PWM1_16BIT_Initialize 0503  
                                                     _ADPREVH 0003E9  
                                                     _ADPREVL 0003E8  
                                                     _CLCDATA 0000D4  
                                                     _ADSTPTH 0003E0  
                                                     _ADSTPTL 0003DF  
                                                     ?_printf 055A  
                                             ?_PMD_Initialize 0501  
                                                     ?_strlen 0501  
                                                     _CLCnCON 0000D6  
                                                     _CLCnPOL 0000D7  
                                              _FLASH_ReadWord 2630  
                                                     _U1ERRIE 0002B3  
                                                     _U1ERRIR 0002B2  
                                     __end_of_CLC1_Initialize 2630  
                                                     _T2INPPS 000248  
                                        __size_of_UART1_Write 0018  
                                                     _U1RXPPS 000272  
                                                     _OSCCON1 0000AD  
                                                     _OSCCON3 0000AF  
                                          __size_of_vfpfcnvrt 01F6  
                                                     _TBLPTRH 0004F7  
                                                     _TBLPTRL 0004F6  
                                                     _TBLPTRU 0004F8  
                                                     _NVMADRH 000044  
                                                     _NVMADRL 000043  
                                                     _NVMADRU 000045  
                                                     _OSCTUNE 0000B0  
                                                     _PWM1CLK 000461  
                                                     _NVMDATL 000046  
                                                     _PWM1GIE 000468  
                                                     _PWM1CON 000469  
                                                     _PWM1GIR 000467  
                                                     _PWM1ERS 000460  
                                                     _PWM1LDS 000462  
                                                     _PWM1PRH 000464  
                                                     _PWM1PRL 000463  
                                                     _NVMLOCK 000042  
                                                     _SLRCONA 000403  
                                                     _SLRCONB 00040B  
                                                     _SLRCONC 000413  
                                                   _CLCIN0PPS 000261  
                                                     __Hparam 0000  
                                                     __Lparam 0000  
                                    __end_of_UART1_Initialize 23FA  
                                                   _CLCSELECT 0000D5  
                                  __end_of_TempIndicator_Calc 1F84  
                                                     ___aodiv 1BA0  
                                                     ___aomod 1D28  
                                                     ___atdiv 1F84  
                                             __size_of___tmul 0058  
                                                   ?_vfprintf 0552  
                                                __psmallconst 1600  
                                      __end_of_FLASH_ReadWord 2660  
                                                     __pcinit 270C  
                                                     __ramtop 1600  
                                                     __ptext0 21C8  
                                                     __ptext1 1E8C  
                                                     __ptext2 2462  
                                                     __ptext3 1F84  
                                                     __ptext4 2630  
                                                     __ptext5 279A  
                                                     __ptext6 2690  
                                                     __ptext7 2390  
                                                     __ptext8 27B0  
                                                     __ptext9 27BA  
                                             __size_of_printf 0028  
                                             __size_of_strlen 003A  
        __end_of_PWM1_16BIT_Slice1Output1_SetInterruptHandler 27E2  
       __size_of_PWM1_16BIT_Slice1Output1_SetInterruptHandler 000A  
              ??_PWM1_16BIT_Slice1Output1_SetInterruptHandler 0503  
               ?_PWM1_16BIT_Slice1Output1_SetInterruptHandler 0501  
                _PWM1_16BIT_Slice1Output1_SetInterruptHandler 27D8  
                                                   _T1CONbits 000314  
                                       _OSCILLATOR_Initialize 2766  
                                                   _T2CONbits 00031E  
                                                __size_of_abs 0040  
                                                __size_of_pad 00C6  
                                    ??_PIN_MANAGER_Initialize 0501  
                                                   _T2HLTbits 00031F  
                                  __end_of_IntroSplashMessage 270C  
                                  __size_of_SYSTEM_Initialize 002E  
                                        end_of_initialization 2726  
            _PWM1_16BIT_Slice1Output2_DefaultInterruptHandler 000000  
                                                   _T2RSTbits 000321  
                                                     fputc@fp 0505  
                                                     fputs@fp 050E  
                              ??_UART1_SetOverrunErrorHandler 0503  
                                           __end_of_vfpfcnvrt 1BA0  
                                                     postdec2 0004DD  
                                                   _PWM1S1CFG 00046A  
                                                   _PWM1S1P1H 00046C  
                                                   _PWM1S1P2H 00046E  
                                                   _PWM1S1P1L 00046B  
                                                   _PWM1S1P2L 00046D  
                                                     postinc0 0004EE  
                                                     postinc1 0004E6  
                                                     postinc2 0004DE  
                                                   _PWM1PIPOS 000466  
                                            ?_ADCC_Initialize 0501  
                                                  ??_vfprintf 0558  
                                           UART1_Write@txData 0501  
                                                     strlen@a 0503  
                                                     strlen@s 0501  
                                             ?_FLASH_ReadWord 0501  
                                                   _PWMIN0PPS 000257  
                                                   _PWMIN1PPS 000258  
                                            ?_CLC1_Initialize 0501  
                                           __size_of_ADCC_ISR 0030  
                         __end_of_ADCC_SetADIInterruptHandler 27F6  
                                 _ADCC_SetADIInterruptHandler 27EC  
                                           __size_of_CLC1_ISR 000A  
                               ??_ADCC_SetADIInterruptHandler 0503  
                                __end_of_INTERRUPT_Initialize 281E  
                              ??_ADCC_DefaultInterruptHandler 0501  
                                              __end_of___tmul 24BA  
                                                 vfpfcnvrt@ap 0546  
                                                 vfpfcnvrt@fp 0542  
                                                 vfpfcnvrt@ll 054A  
                                      ?_OSCILLATOR_Initialize 0501  
                           __size_of_ADCC_GetConversionResult 0016  
                                   ?_ADCC_GetConversionResult 0501  
                                              __end_of_printf 26E6  
                                              __end_of_strlen 25F8  
                                         start_initialization 270C  
                             __size_of_PIN_MANAGER_Initialize 0076  
                                                 __end_of_abs 2584  
                                                 __end_of_pad 2132  
                                     ??_UART1_SetErrorHandler 0503  
                                                 putch@txData 0502  
                                                  ivt0x8_base 0008  
                                                 _CLCDATAbits 0000D4  
                                    __size_of_TMR1_Initialize 003A  
                                                 vfprintf@fmt 0554  
                                            ??_PMD_Initialize 0501  
                                                    ??___tmul 0507  
                                                    ??_printf 055F  
                                              ___tmul@product 0507  
                              __size_of_PWM1_16BIT_Initialize 006E  
                                                    ??_strlen 0503  
                               __end_of_PWM1_16BIT_Initialize 2324  
                                          _UART1_ErrorHandler 059E  
                                               __pcstackBANK5 05A4  
                                            ___aodiv@dividend 0501  
                                    __size_of_TMR2_Initialize 001E  
                                                   _adcc_flag 0572  
                                                   _adcc_meas 056B  
                                                   __pnvBANK5 0594  
                                      _PIN_MANAGER_Initialize 2240  
                                                   _dtoa$2363 0530  
                                           ?_UART1_Initialize 0501  
                        __end_of_UART1_SetFramingErrorHandler 27C4  
                       __size_of_UART1_SetFramingErrorHandler 000A  
                                _UART1_SetFramingErrorHandler 27BA  
                                                    ?___aodiv 0501  
                                                    ?___aomod 0501  
                                                    ?___atdiv 0501  
                                            ___aodiv@quotient 0513  
                                          ??_UART1_Initialize 0503  
                                                   _bufferRAM 001500  
                                            _uart1RxLastError 0573  
                                               ??_UART1_Write 0501  
                                ??_INTERRUPT_InterruptManager 0501  
                                           __size_of_vfprintf 0068  
                                                    _ADCC_ISR 2660  
                                                 __smallconst 1600  
                            _UART1_DefaultOverrunErrorHandler 000000  
                                                    _CLC1_ISR 2800  
                                          _TempIndicator_Calc 1E8C  
                                              __size_of_fputc 0096  
                                                    _T2CLKCON 000320  
                                              __size_of_fputs 0044  
                                                    _CLCnGLS0 0000DC  
                                                    _CLCnGLS1 0000DD  
                                                    _CLCnGLS2 0000DE  
                                                    _CLCnGLS3 0000DF  
                                                    _CLCnSEL0 0000D8  
                                                    _CLCnSEL1 0000D9  
                                                    _CLCnSEL2 0000DA  
                                                    _CLCnSEL3 0000DB  
                                                 _U1ERRIRbits 0002B2  
                                              __size_of_putch 000A  
                                        _INTERRUPT_Initialize 281A  
                   _PWM1_16BIT_Period_DefaultInterruptHandler 000000  
                                         ?_TempIndicator_Calc 0501  
                       UART1_SetErrorHandler@interruptHandler 0501  
                                                    _LATCbits 0004C0  
                                          _IntroSplashMessage 26E6  
                                                    _PIE0bits 0004A8  
                                                    _PIE1bits 0004A9  
                                                    _PIE4bits 0004AC  
                         __size_of_INTERRUPT_InterruptManager 0046  
                                                    i2u156_40 2676  
                                                    i2u172_40 24C8  
                                                    i2u156_41 2672  
                                                    i2u172_41 24C4  
                                                    i2u173_40 24D6  
                                                    i2u173_41 24D2  
                                                    i2u157_48 267C  
                                                    i2u174_40 24EC  
                                                    i2u157_49 268E  
                                                    i2u174_41 24E8  
                                                    i2u175_40 24FA  
                                                    i2u175_41 24F6  
                                                    _PIR0bits 0004B3  
                                                    _PIR1bits 0004B4  
                                                    _PIR3bits 0004B6  
                                                    _PIR4bits 0004B7  
                                            ??_FLASH_ReadWord 0505  
                                                    _PWM1CPRE 000465  
                                         ?_IntroSplashMessage 0501  
                               ?_UART1_SetFramingErrorHandler 0501  
                                        ??_TempIndicator_Calc 05A8  
                                                    _SW0_flag 0571  
                                                   _vfpfcnvrt 19AA  
                                           ??_TMR1_Initialize 0501  
                                                  _ADCON0bits 0003F3  
                                                  _ADCON1bits 0003F4  
                                                  _ADCON2bits 0003F5  
                                                  _ADCON3bits 0003F6  
                                     __size_of_FVR_Initialize 0008  
        __end_of_PWM1_16BIT_Slice1Output2_SetInterruptHandler 27D8  
       __size_of_PWM1_16BIT_Slice1Output2_SetInterruptHandler 000A  
              ??_PWM1_16BIT_Slice1Output2_SetInterruptHandler 0503  
               ?_PWM1_16BIT_Slice1Output2_SetInterruptHandler 0501  
                _PWM1_16BIT_Slice1Output2_SetInterruptHandler 27CE  
                                         ___tmul@multiplicand 0504  
                                         __end_of_UART1_Write 279A  
                                        ??_IntroSplashMessage 055F  
                                                 _INTCON0bits 0004D6  
                   _PWM1_16BIT_Slice1Output1_InterruptHandler 059C  
                                       ?_INTERRUPT_Initialize 0501  
                                           ??_TMR2_Initialize 0501  
                                                  _ADSTATbits 0003F7  
                                                    __Hrparam 0000  
                            __end_of_ADCC_GetConversionResult 27B0  
                                                  vfprintf@ap 0556  
                                                    __Lrparam 0000  
                                                  vfprintf@fp 0552  
                                     ??_OSCILLATOR_Initialize 0501  
                                            __size_of___aodiv 0188  
                                            __size_of___aomod 0164  
                                            __size_of___atdiv 00E8  
                                                  ?_vfpfcnvrt 0542  
                                             ___aodiv@divisor 0509  
                                             ___aodiv@counter 0511  
                                    __size_of_ADCC_Initialize 006C  
                                                    __pivt0x8 0008  
                                                    __ptext10 27C4  
                                                    __ptext11 272C  
                                                    __ptext20 281A  
                                                    __ptext12 2584  
                                                    __ptext21 280A  
                                                    __ptext13 22B6  
                                                  _T1GCONbits 000315  
                                                    __ptext30 206C  
                                                    __ptext22 25F8  
                                                    __ptext14 27CE  
                                                    __ptext31 25BE  
                                                    __ptext23 2324  
                                                    __ptext15 27D8  
                                                    __ptext40 2800  
                                                    __ptext32 2500  
                                                    __ptext24 27EC  
                                                    __ptext16 27E2  
                                                    __ptext41 2660  
                                                    __ptext33 2132  
                                                    __ptext25 26E6  
                                                    __ptext17 274A  
                                                    __ptext42 2812  
                                                    __ptext34 27F6  
                                                    __ptext26 26BE  
                                                    __ptext18 2240  
                                                    __ptext43 0000  
                                                    __ptext35 2782  
                                                    __ptext27 23FA  
                                                    __ptext19 2766  
                                                    __ptext36 2544  
                                                    __ptext28 19AA  
                                                    __ptext37 1D28  
                                                    __ptext29 16C6  
                                                    __ptext38 1BA0  
                                                    __ptext39 24BA  
                                                  _U1CON0bits 0002AB  
                              __size_of_UART1_SetErrorHandler 000A  
                               __end_of_UART1_SetErrorHandler 27CE  
                                    __size_of_CLC1_Initialize 0038  
                                               __size_of_main 0078  
                                               __size_of_dtoa 02E4  
                                   _UART1_OverrunErrorHandler 05A0  
                                   _ADCC_ADI_InterruptHandler 0596  
                UART1_SetOverrunErrorHandler@interruptHandler 0501  
                          _PWM1_16BIT_Period_InterruptHandler 0598  
                                                    _vfprintf 23FA  
                          __end_of_INTERRUPT_InterruptManager 2500  
                                  _INTERRUPT_InterruptManager 24BA  
                                                   printf@fmt 055A  
                                                 _UART1_Write 2782  
                                            ___aomod@dividend 0501  
                              ??_UART1_SetFramingErrorHandler 0503  
                                                 _PWM1GIEbits 000468  
                                                 _PWM1CONbits 000469  
                                                 _NVMCON0bits 000040  
                                                 _NVMCON1bits 000041  
                                                  _FVRCONbits 0003D7  
                                                 _PWM1GIRbits 000467  
                                      ??_INTERRUPT_Initialize 0501  
                        __end_of_ADCC_DefaultInterruptHandler 281A  
                       __size_of_ADCC_DefaultInterruptHandler 0008  
                                _ADCC_DefaultInterruptHandler 2812  
                                                    intlevel2 0000  
                                     ?_PIN_MANAGER_Initialize 0501  
                                                    printf@ap 05A6  
                   _PWM1_16BIT_Slice1Output2_InterruptHandler 059A  
                                           ___tmul@multiplier 0501  
                UART1_SetFramingErrorHandler@interruptHandler 0501  
                                    _ADCC_GetConversionResult 279A  
                                             ___aomod@divisor 0509  
                                                 ??_vfpfcnvrt 0548  
                                             ___aomod@counter 0511  
                                              _FVR_Initialize 280A  
                                       _PWM1_16BIT_Initialize 22B6  
                                   __size_of_UART1_Initialize 006A  
                                            ___atdiv@dividend 0501  
                                                ___aodiv@sign 0512  
                              __end_of_PIN_MANAGER_Initialize 22B6  
                                           ??_ADCC_Initialize 0503  
                             fp__ADCC_DefaultInterruptHandler 0000  
                               ?_ADCC_DefaultInterruptHandler 0501  
                                             ___atdiv@divisor 0504  
                                             ___atdiv@counter 0507  
                                                ___aomod@sign 0512  
                                             _TMR1_Initialize 2584  
                                           ??_CLC1_Initialize 0501  
                                                ___atdiv@sign 0508  
